
.\rom_0x08003000.elf:     file format elf32-littlearm
.\rom_0x08003000.elf
architecture: arm, flags 0x00000112:
EXEC_P, HAS_SYMS, D_PAGED
start address 0x08003000

Program Header:
0x70000001 off    0x00009ff8 vaddr 0x08009ff8 paddr 0x08009ff8 align 2**2
         filesz 0x00000008 memsz 0x00000008 flags r--
    LOAD off    0x00000000 vaddr 0x08000000 paddr 0x08000000 align 2**15
         filesz 0x0000a480 memsz 0x0000a480 flags r-x
    LOAD off    0x00010000 vaddr 0x20000000 paddr 0x0800a480 align 2**15
         filesz 0x00000580 memsz 0x000005d8 flags rw-
private flags = 5000202: [Version5 EABI] [soft-float ABI] [has entry point]

Sections:
Idx Name          Size      VMA       LMA       File off  Algn
  0 .text         00006ff8  08003000  08003000  00003000  2**3
                  CONTENTS, ALLOC, LOAD, READONLY, CODE
  1 .ARM.exidx    00000008  08009ff8  08009ff8  00009ff8  2**2
                  CONTENTS, ALLOC, LOAD, READONLY, DATA
  2 .rodata       00000480  0800a000  0800a000  0000a000  2**3
                  CONTENTS, ALLOC, LOAD, READONLY, DATA
  3 .data         00000580  20000000  0800a480  00010000  2**2
                  CONTENTS, ALLOC, LOAD, DATA
  4 .bss          00000058  20000580  0800aa00  00010580  2**2
                  ALLOC
  5 .debug_info   00003294  00000000  00000000  00010580  2**0
                  CONTENTS, READONLY, DEBUGGING
  6 .debug_abbrev 00000e29  00000000  00000000  00013814  2**0
                  CONTENTS, READONLY, DEBUGGING
  7 .debug_aranges 00000160  00000000  00000000  00014640  2**3
                  CONTENTS, READONLY, DEBUGGING
  8 .debug_line   00000a33  00000000  00000000  000147a0  2**0
                  CONTENTS, READONLY, DEBUGGING
  9 .debug_str    00000f58  00000000  00000000  000151d3  2**0
                  CONTENTS, READONLY, DEBUGGING
 10 .comment      00000030  00000000  00000000  0001612b  2**0
                  CONTENTS, READONLY
 11 .ARM.attributes 00000031  00000000  00000000  0001615b  2**0
                  CONTENTS, READONLY
 12 .debug_frame  000011a0  00000000  00000000  0001618c  2**2
                  CONTENTS, READONLY, DEBUGGING
 13 .debug_loc    00000903  00000000  00000000  0001732c  2**0
                  CONTENTS, READONLY, DEBUGGING
 14 .debug_ranges 00000128  00000000  00000000  00017c2f  2**0
                  CONTENTS, READONLY, DEBUGGING
SYMBOL TABLE:
08003000 l    d  .text	00000000 .text
08009ff8 l    d  .ARM.exidx	00000000 .ARM.exidx
0800a000 l    d  .rodata	00000000 .rodata
20000000 l    d  .data	00000000 .data
20000580 l    d  .bss	00000000 .bss
00000000 l    d  .debug_info	00000000 .debug_info
00000000 l    d  .debug_abbrev	00000000 .debug_abbrev
00000000 l    d  .debug_aranges	00000000 .debug_aranges
00000000 l    d  .debug_line	00000000 .debug_line
00000000 l    d  .debug_str	00000000 .debug_str
00000000 l    d  .comment	00000000 .comment
00000000 l    d  .ARM.attributes	00000000 .ARM.attributes
00000000 l    d  .debug_frame	00000000 .debug_frame
00000000 l    d  .debug_loc	00000000 .debug_loc
00000000 l    d  .debug_ranges	00000000 .debug_ranges
00000000 l    df *ABS*	00000000 crt0.o
20004fff l       *ABS*	00000000 RAM_END
20004c00 l       *ABS*	00000000 PSP_BASE
20004c00 l       *ABS*	00000000 MSP_LIMIT
20005000 l       *ABS*	00000000 MSP_BASE
00000400 l       *ABS*	00000000 MSP_SIZE
08003179 l       .text	00000000 _PSR
0800313a l       .text	00000000 _loop
0800316c l       .text	00000000 fmt
0800317d l       .text	00000000 _r0
08003181 l       .text	00000000 _r1
08003185 l       .text	00000000 _r2
08003189 l       .text	00000000 _r3
0800318d l       .text	00000000 _r4
08003191 l       .text	00000000 _r5
08003195 l       .text	00000000 _r6
08003199 l       .text	00000000 _r7
0800319d l       .text	00000000 _r8
080031a1 l       .text	00000000 _r9
080031a5 l       .text	00000000 _r10
080031a9 l       .text	00000000 _r11
080031ad l       .text	00000000 _r12
080031b1 l       .text	00000000 _PSP
00000000 l    df *ABS*	00000000 clock.c
00000000 l    df *ABS*	00000000 core_cm3.c
00000000 l    df *ABS*	00000000 key.c
00000000 l    df *ABS*	00000000 led.c
00000000 l    df *ABS*	00000000 main.c
00000000 l    df *ABS*	00000000 runtime.c
20000580 l       .bss	00000000 .LANCHOR0
20000580 l     O .bss	00000004 heap.4793
00000000 l    df *ABS*	00000000 stm32f10x_it.c
080035ac l     F .text	00000038 Stack_Dump
20000584 l       .bss	00000000 .LANCHOR1
0800a000 l     O .rodata	00000020 Stack_reg
00000000 l    df *ABS*	00000000 systick.c
00000000 l    df *ABS*	00000000 timer.c
00000000 l    df *ABS*	00000000 uart.c
00000000 l    df *ABS*	00000000 vsprintf.c
00000000 l    df *ABS*	00000000 impure.c
20000004 l     O .data	000000f0 impure_data
00000000 l    df *ABS*	00000000 vfprintf.c
0800a024 l       .rodata	00000000 .LANCHOR0
0800a024 l     O .rodata	00000010 blanks.6752
0800a034 l     O .rodata	00000010 zeroes.6753
00000000 l    df *ABS*	00000000 dtoa.c
08005408 l     F .text	0000014a quorem
00000000 l    df *ABS*	00000000 locale.c
200000f4 l       .data	00000000 .LANCHOR0
200000f4 l     O .data	00000020 lc_ctype_charset
20000118 l     O .data	00000020 lc_message_charset
20000138 l     O .data	00000038 lconv
00000000 l    df *ABS*	00000000 malloc.c
00000000 l    df *ABS*	00000000 mallocr.c
20000170 l       .data	00000000 .LANCHOR0
200005a0 l       .bss	00000000 .LANCHOR1
00000000 l    df *ABS*	00000000 memchr-stub.c
00000000 l    df *ABS*	00000000 memcpy-stub.c
00000000 l    df *ABS*	00000000 mlock.c
00000000 l    df *ABS*	00000000 mprec.c
0800a048 l       .rodata	00000000 .LANCHOR0
0800a048 l     O .rodata	0000000c p05.5301
00000000 l    df *ABS*	00000000 s_fpclassify.c
00000000 l    df *ABS*	00000000 sbrkr.c
00000000 l    df *ABS*	00000000 lib_a-strcmp.o
00000000 l    df *ABS*	00000000 strlen.c
00000000 l    df *ABS*	00000000 vfprintf.c
0800a170 l       .rodata	00000000 .LANCHOR0
0800a170 l     O .rodata	00000010 blanks.6696
0800a180 l     O .rodata	00000010 zeroes.6697
00000000 l    df *ABS*	00000000 mallocr.c
00000000 l    df *ABS*	00000000 mallocr.c
00000000 l    df *ABS*	00000000 memmove.c
00000000 l    df *ABS*	00000000 memset.c
00000000 l    df *ABS*	00000000 mallocr.c
00000000 l    df *ABS*	00000000 reent.c
00000000 l    df *ABS*	00000000 _udivsi3.o
08008d68 l       .text	00000000 .udivsi3_skip_div0_test
00000000 l       *ABS*	00000000 shift
00000000 l    df *ABS*	00000000 _dvmd_tls.o
00000000 l    df *ABS*	00000000 _arm_addsubdf3.o
00000000 l    df *ABS*	00000000 _arm_muldivdf3.o
00000000 l    df *ABS*	00000000 _arm_cmpdf2.o
00000000 l    df *ABS*	00000000 _arm_fixdfsi.o
00000000 l    df *ABS*	00000000 _arm_fixunsdfsi.o
00000000 l    df *ABS*	00000000 _aeabi_uldivmod.o
00000000 l    df *ABS*	00000000 bpabi.c
00000000 l    df *ABS*	00000000 libgcc2.c
00000000 l    df *ABS*	00000000 libgcc2.c
00000000 l    df *ABS*	00000000 
08003804 g     F .text	00000006 EXTI2_IRQHandler
0800327c g     F .text	00000006 __set_PRIMASK
080074a8 g     F .text	00000034 _mprec_log10
08007524 g     F .text	0000005e __any_on
0800a120 g     O .rodata	00000028 __mprec_tinytens
0800984c g     F .text	00000012 .hidden __aeabi_dcmple
08008c74 g     F .text	0000001a cleanup_glue
08009974 g     F .text	00000030 .hidden __gnu_uldivmod_helper
080032e8 g     F .text	00000026 Key_Poll_Init
08009788 g     F .text	0000007a .hidden __cmpdf2
08003794 g     F .text	00000010 DebugMon_Handler
08009788 g     F .text	0000007a .hidden __eqdf2
080099a4 g     F .text	00000352 .hidden __divdi3
080092f8 g     F .text	0000005a .hidden __floatdidf
08003f34 g     F .text	0000001a vsprintf
080038c8 g     F .text	00000006 TIM1_CC_IRQHandler
08003628 g     F .text	0000012a HardFault_Handler
080064e0 g     F .text	00000052 _setlocale_r
08006c48 g     F .text	00000002 __malloc_unlock
08003284 g     F .text	00000006 __get_FAULTMASK
080037b4 g     F .text	0000000e SysTick_Handler
080032a4 g     F .text	00000004 __REV
080037cc g     F .text	00000006 PVD_IRQHandler
08008718 g     F .text	000000ce memmove
080037a4 g     F .text	00000010 PendSV_Handler
08003618 g     F .text	00000010 NMI_Handler
08006c4c g     F .text	0000006c _Balloc
0800380c g     F .text	00000006 EXTI3_IRQHandler
08009778 g     F .text	0000008a .hidden __gtdf2
080032e0 g     F .text	00000006 __STREXW
080032c8 g     F .text	00000006 __LDREXW
200005d4 g     O .bss	00000004 errno
08009814 g     F .text	00000010 .hidden __aeabi_cdcmple
080039b4 g     F .text	0000000c SysTick_Get_Load_Time
080034b4 g     F .text	000000b2 Main
20000590 g     O .bss	00000004 Uart1_Rx_Data
08003a18 g     F .text	0000003e TIM2_Stopwatch_Start
08006b9c g     F .text	000000a6 memcpy
08009804 g     F .text	00000020 .hidden __aeabi_cdrcmple
08003470 g     F .text	0000001c LED_Display
08003f50 g     F .text	000014b4 _svfprintf_r
08009288 g     F .text	00000022 .hidden __floatsidf
08009780 g     F .text	00000082 .hidden __ltdf2
0800385c g     F .text	00000006 USB_HP_CAN_TX_IRQHandler
080037f4 g     F .text	00000006 EXTI0_IRQHandler
080034a0 g     F .text	00000012 LED_All_Off
080038f8 g     F .text	00000006 I2C2_EV_IRQHandler
20000584 g     O .bss	00000004 SysTick_Flag
08009918 g     F .text	00000000 .hidden __aeabi_uldivmod
08007584 g     F .text	00000050 __fpclassifyd
08007448 g     F .text	0000005e __ratio
080032b0 g     F .text	00000006 __RBIT
20000000 g       .data	00000000 __RW_BASE__
0800657c g     F .text	00000010 malloc
08008d68 g     F .text	0000025c .hidden __udivsi3
0800a058 g     O .rodata	000000c8 __mprec_tens
08003774 g     F .text	00000010 UsageFault_Handler
0800328c g     F .text	00000006 __set_FAULTMASK
08006534 g     F .text	0000000a __locale_charset
080098d8 g     F .text	00000040 .hidden __fixunsdfsi
08003854 g     F .text	00000006 ADC1_2_IRQHandler
200005a0 g     O .bss	00000004 __malloc_top_pad
20000114 g     O .data	00000004 __mb_cur_max
08009268 g     F .text	0000001e .hidden __aeabi_ui2d
08006558 g     F .text	00000008 _localeconv_r
08006ea8 g     F .text	00000012 __i2b
08003908 g     F .text	00000006 SPI1_IRQHandler
08003874 g     F .text	00000006 CAN_SCE_IRQHandler
08008fe4 g     F .text	00000000 .hidden __aeabi_drsub
080075d4 g     F .text	00000026 _sbrk_r
080037d4 g     F .text	00000006 TAMPER_IRQHandler
08003440 g     F .text	0000002e LED_Init
08003cc8 g     F .text	00000022 TIM3_Out_Stop
08009838 g     F .text	00000012 .hidden __aeabi_dcmplt
080031ec g     F .text	00000058 Clock_Init
200005cc g     O .bss	00000004 __malloc_max_sbrked_mem
080092ac g     F .text	0000003a .hidden __extendsfdf2
080095a8 g     F .text	000001d0 .hidden __aeabi_ddiv
08008ff0 g     F .text	00000276 .hidden __adddf3
20000580 g       .data	00000000 __RW_LIMIT__
08003e28 g     F .text	00000060 Uart1_Printf
080072e0 g     F .text	000000ac __b2d
08009354 g     F .text	00000254 .hidden __aeabi_dmul
08003294 g     F .text	00000006 __get_CONTROL
0800a020 g     O .rodata	00000004 _global_impure_ptr
08008888 g     F .text	000003ea _realloc_r
08009cf8 g     F .text	00000300 .hidden __udivdi3
08003834 g     F .text	00000006 DMA1_Channel4_IRQHandler
0800a148 g     O .rodata	00000028 __mprec_bigtens
08006d7c g     F .text	00000098 __s2b
08009268 g     F .text	0000001e .hidden __floatunsidf
08003568 g     F .text	00000044 _sbrk
0800716c g     F .text	00000042 __mcmp
08003e88 g     F .text	00000016 Uart1_Get_Pressed
08003eb8 g     F .text	00000048 Uart1_RX_Interrupt_Enable
08003930 g     F .text	00000006 USART3_IRQHandler
080037dc g     F .text	00000006 RTC_IRQHandler
08003244 g     F .text	00000008 __get_PSP
0800339c g     F .text	000000a4 Key_ISR_Enable
0800324c g     F .text	00000006 __set_PSP
0800384c g     F .text	00000006 DMA1_Channel7_IRQHandler
08008c90 g     F .text	000000d6 _reclaim_reent
08006e14 g     F .text	0000003c __hi0bits
08009888 g     F .text	0000004e .hidden __fixdfsi
08003c0c g     F .text	00000018 TIM4_Change_Value
08003a58 g     F .text	00000026 TIM2_Stopwatch_Stop
080038e0 g     F .text	00000006 TIM4_IRQHandler
08008ff0 g     F .text	00000276 .hidden __aeabi_dadd
08009780 g     F .text	00000082 .hidden __ledf2
0800386c g     F .text	00000006 CAN_RX1_IRQHandler
08006ffc g     F .text	000000b8 __pow5mult
080092e8 g     F .text	0000006a .hidden __aeabi_ul2d
2000059c g     O .bss	00000004 __nlocale_changed
00000000  w      *UND*	00000000 __sf_fake_stderr
080031b8 g     F .text	00000000 _HardFault_Handler
080038e8 g     F .text	00000006 I2C1_EV_IRQHandler
080030ec g     F .text	00000000 __start
080032b8 g     F .text	00000008 __LDREXB
08009874 g     F .text	00000012 .hidden __aeabi_dcmpgt
08003844 g     F .text	00000006 DMA1_Channel6_IRQHandler
08006b0c g     F .text	00000090 memchr
08008580 g     F .text	00000198 _free_r
080038d8 g     F .text	00000006 TIM3_IRQHandler
080037ec g     F .text	00000006 RCC_IRQHandler
08006540 g     F .text	0000000c __locale_mb_cur_max
08009860 g     F .text	00000012 .hidden __aeabi_dcmpge
080038c0 g     F .text	00000006 TIM1_TRG_COM_IRQHandler
0800381c g     F .text	00000006 DMA1_Channel1_IRQHandler
08003274 g     F .text	00000006 __get_PRIMASK
20000598 g     O .bss	00000004 __mlocale_changed
08008fec g     F .text	0000027a .hidden __aeabi_dsub
08003bc8 g     F .text	00000020 TIM4_Check_Timeout
20000578 g     O .data	00000004 __malloc_sbrk_base
00000580 g       *ABS*	00000000 __RW_SIZE__
080092e8 g     F .text	0000006a .hidden __floatundidf
080070b4 g     F .text	000000b6 __lshift
08007898 g     F .text	00000104 __ssprint_r
08003938 g     F .text	00000006 EXTI15_10_IRQHandler
0800a480 g       *ABS*	00000000 __RW_LOAD_ADDR__
08003950 g     F .text	00000048 SysTick_Run
080032ac g     F .text	00000004 __REVSH
08006ebc g     F .text	00000140 __multiply
200005a4 g     O .bss	00000028 __malloc_current_mallinfo
0800738c g     F .text	000000ba __d2b
0800333c g     F .text	0000002e Key_Wait_Key_Released
08009288 g     F .text	00000022 .hidden __aeabi_i2d
0800a000 g       .rodata	00000000 __RO_BASE__
08008fe0  w    F .text	00000002 .hidden __aeabi_ldiv0
0800387c g     F .text	00000032 EXTI9_5_IRQHandler
080095a8 g     F .text	000001d0 .hidden __divdf3
080074dc g     F .text	00000046 __copybits
20000170 g     O .data	00000408 __malloc_av_
08009354 g     F .text	00000254 .hidden __muldf3
08006c44 g     F .text	00000002 __malloc_lock
08008478 g     F .text	00000062 _calloc_r
08003a80 g     F .text	000000e4 TIM2_Delay
08003910 g     F .text	00000006 SPI2_IRQHandler
00000000  w      *UND*	00000000 __sf_fake_stdin
08003864 g     F .text	00000006 USB_LP_CAN_RX0_IRQHandler
080087e8 g     F .text	0000009e memset
08003754 g     F .text	00000010 MemManage_Handler
200005d0 g     O .bss	00000004 __malloc_max_total_mem
200005d4 g       .bss	00000000 __ZI_LIMIT__
08008d68 g     F .text	00000000 .hidden __aeabi_uidiv
08003784 g     F .text	00000010 SVC_Handler
080039d0 g     F .text	00000048 SysTick_OS_Tick
0800329c g     F .text	00000006 __set_CONTROL
08005554 g     F .text	00000f8a _dtoa_r
0800659c g     F .text	0000056e _malloc_r
080092f8 g     F .text	0000005a .hidden __aeabi_l2d
08003de4 g     F .text	00000042 Uart1_Send_String
08003da8 g     F .text	0000003a Uart1_Send_Byte
08003310 g     F .text	0000002a Key_Get_Pressed
08003c24 g     F .text	0000004c TIM3_Out_Init
0800348c g     F .text	00000012 LED_All_On
0800383c g     F .text	00000006 DMA1_Channel5_IRQHandler
08003814 g     F .text	00000006 EXTI4_IRQHandler
080084dc g     F .text	000000a2 _malloc_trim_r
080075fc g     F .text	00000000 strcmp
08003254 g     F .text	00000008 __get_MSP
0800a480 g       .rodata	00000000 __RO_LIMIT__
08009788 g     F .text	0000007a .hidden __nedf2
20000588 g     O .bss	00000004 Key_Value
20000594 g     O .bss	00000004 _PathLocale
08003f00 g     F .text	00000032 _vsprintf_r
0800382c g     F .text	00000006 DMA1_Channel3_IRQHandler
08006560 g     F .text	00000012 setlocale
080032a8 g     F .text	00000004 __REV16
20000000 g     O .data	00000004 _impure_ptr
080038b8 g     F .text	00000006 TIM1_UP_IRQHandler
08006554 g     F .text	00000004 __locale_cjk_lang
0800799c g     F .text	00000adc _svfiprintf_r
00000058 g       *ABS*	00000000 __ZI_SIZE__
080037c4 g     F .text	00000006 WWDG_IRQHandler
0800325c g     F .text	00000006 __set_MSP
0800729c g     F .text	00000042 __ulp
080039c0 g     F .text	0000000e SysTick_Stop
080038d0 g     F .text	00000006 TIM2_IRQHandler
080098d8 g     F .text	00000040 .hidden __aeabi_d2uiz
20000580 g       .bss	00000000 __ZI_BASE__
08006574 g     F .text	00000008 localeconv
080038b0 g     F .text	00000006 TIM1_BRK_IRQHandler
08008fc4 g     F .text	0000001a .hidden __aeabi_uidivmod
080037fc g     F .text	00000006 EXTI1_IRQHandler
0800326c g     F .text	00000006 __set_BASEPRI
08009824 g     F .text	00000012 .hidden __aeabi_dcmpeq
08003be8 g     F .text	00000022 TIM4_Stop
0800336c g     F .text	0000002e Key_Wait_Key_Pressed
08003cf0 g     F .text	000000b8 Uart1_Init
08003940 g     F .text	00000006 RTCAlarm_IRQHandler
08003928 g     F .text	00000006 USART2_IRQHandler
2000057c g     O .data	00000004 __malloc_trim_threshold
0800654c g     F .text	00000008 __locale_msgcharset
080032d8 g     F .text	00000008 __STREXH
080071b0 g     F .text	000000ea __mdiff
08009888 g     F .text	0000004e .hidden __aeabi_d2iz
080032c0 g     F .text	00000008 __LDREXH
08003900 g     F .text	00000006 I2C2_ER_IRQHandler
08003824 g     F .text	00000006 DMA1_Channel2_IRQHandler
00000000  w      *UND*	00000000 __sf_fake_stdout
2000058c g     O .bss	00000004 Uart1_Rx_In
08008fe0  w    F .text	00000002 .hidden __aeabi_idiv0
080037e4 g     F .text	00000006 FLASH_IRQHandler
08003764 g     F .text	00000010 BusFault_Handler
08003918 g     F .text	0000000e USART1_IRQHandler
080039a8 g     F .text	0000000c SysTick_Get_Time
08007838 g     F .text	0000005e strlen
08003264 g     F .text	00000006 __get_BASEPRI
08009814 g     F .text	00000010 .hidden __aeabi_cdcmpeq
08009778 g     F .text	0000008a .hidden __gedf2
08003ea0 g     F .text	00000018 Uart1_Get_Char
08003b64 g     F .text	00000062 TIM4_Repeat
08009944 g     F .text	00000030 .hidden __gnu_ldivmod_helper
080038f0 g     F .text	00000006 I2C1_ER_IRQHandler
08003c70 g     F .text	00000058 TIM3_Out_Freq_Generation
080092ac g     F .text	0000003a .hidden __aeabi_f2d
080032d0 g     F .text	00000008 __STREXB
08008fec g     F .text	0000027a .hidden __subdf3
08003126 g     F .text	00000000 _Print_Reg
08006e50 g     F .text	00000056 __lo0bits
080035e4 g     F .text	00000032 Invalid_ISR
08003998 g     F .text	00000010 SysTick_Check_Timeout
08003948 g     F .text	00000006 USBWakeUp_IRQHandler
0800658c g     F .text	00000010 free
08006cf0 g     F .text	0000008c __multadd
08006cb8 g     F .text	00000036 _Bfree



Disassembly of section .text:

08003000 <__start-0xec>:
 8003000:	20005000 	andcs	r5, r0, r0
 8003004:	080030ed 	stmdaeq	r0, {r0, r2, r3, r5, r6, r7, ip, sp}
 8003008:	00000000 	andeq	r0, r0, r0
 800300c:	080031b9 	stmdaeq	r0, {r0, r3, r4, r5, r7, r8, ip, sp}
	...
 800303c:	080037b5 	stmdaeq	r0, {r0, r2, r4, r5, r7, r8, r9, sl, ip, sp}
 8003040:	080037c5 	stmdaeq	r0, {r0, r2, r6, r7, r8, r9, sl, ip, sp}
 8003044:	080037cd 	stmdaeq	r0, {r0, r2, r3, r6, r7, r8, r9, sl, ip, sp}
 8003048:	080037d5 	stmdaeq	r0, {r0, r2, r4, r6, r7, r8, r9, sl, ip, sp}
 800304c:	080037dd 	stmdaeq	r0, {r0, r2, r3, r4, r6, r7, r8, r9, sl, ip, sp}
 8003050:	080037e5 	stmdaeq	r0, {r0, r2, r5, r6, r7, r8, r9, sl, ip, sp}
 8003054:	080037ed 	stmdaeq	r0, {r0, r2, r3, r5, r6, r7, r8, r9, sl, ip, sp}
 8003058:	080037f5 	stmdaeq	r0, {r0, r2, r4, r5, r6, r7, r8, r9, sl, ip, sp}
 800305c:	080037fd 	stmdaeq	r0, {r0, r2, r3, r4, r5, r6, r7, r8, r9, sl, ip, sp}
 8003060:	08003805 	stmdaeq	r0, {r0, r2, fp, ip, sp}
 8003064:	0800380d 	stmdaeq	r0, {r0, r2, r3, fp, ip, sp}
 8003068:	08003815 	stmdaeq	r0, {r0, r2, r4, fp, ip, sp}
 800306c:	0800381d 	stmdaeq	r0, {r0, r2, r3, r4, fp, ip, sp}
 8003070:	08003825 	stmdaeq	r0, {r0, r2, r5, fp, ip, sp}
 8003074:	0800382d 	stmdaeq	r0, {r0, r2, r3, r5, fp, ip, sp}
 8003078:	08003835 	stmdaeq	r0, {r0, r2, r4, r5, fp, ip, sp}
 800307c:	0800383d 	stmdaeq	r0, {r0, r2, r3, r4, r5, fp, ip, sp}
 8003080:	08003845 	stmdaeq	r0, {r0, r2, r6, fp, ip, sp}
 8003084:	0800384d 	stmdaeq	r0, {r0, r2, r3, r6, fp, ip, sp}
 8003088:	08003855 	stmdaeq	r0, {r0, r2, r4, r6, fp, ip, sp}
	...
 800309c:	0800387d 	stmdaeq	r0, {r0, r2, r3, r4, r5, r6, fp, ip, sp}
 80030a0:	080038b1 	stmdaeq	r0, {r0, r4, r5, r7, fp, ip, sp}
 80030a4:	080038b9 	stmdaeq	r0, {r0, r3, r4, r5, r7, fp, ip, sp}
 80030a8:	080038c1 	stmdaeq	r0, {r0, r6, r7, fp, ip, sp}
 80030ac:	080038c9 	stmdaeq	r0, {r0, r3, r6, r7, fp, ip, sp}
 80030b0:	080038d1 	stmdaeq	r0, {r0, r4, r6, r7, fp, ip, sp}
 80030b4:	080038d9 	stmdaeq	r0, {r0, r3, r4, r6, r7, fp, ip, sp}
 80030b8:	080038e1 	stmdaeq	r0, {r0, r5, r6, r7, fp, ip, sp}
 80030bc:	080038e9 	stmdaeq	r0, {r0, r3, r5, r6, r7, fp, ip, sp}
 80030c0:	080038f1 	stmdaeq	r0, {r0, r4, r5, r6, r7, fp, ip, sp}
 80030c4:	080038f9 	stmdaeq	r0, {r0, r3, r4, r5, r6, r7, fp, ip, sp}
 80030c8:	08003901 	stmdaeq	r0, {r0, r8, fp, ip, sp}
 80030cc:	08003909 	stmdaeq	r0, {r0, r3, r8, fp, ip, sp}
 80030d0:	08003911 	stmdaeq	r0, {r0, r4, r8, fp, ip, sp}
 80030d4:	08003919 	stmdaeq	r0, {r0, r3, r4, r8, fp, ip, sp}
 80030d8:	08003929 	stmdaeq	r0, {r0, r3, r5, r8, fp, ip, sp}
 80030dc:	08003931 	stmdaeq	r0, {r0, r4, r5, r8, fp, ip, sp}
 80030e0:	08003939 	stmdaeq	r0, {r0, r3, r4, r5, r8, fp, ip, sp}
 80030e4:	08003941 	stmdaeq	r0, {r0, r6, r8, fp, ip, sp}
 80030e8:	08003949 	stmdaeq	r0, {r0, r3, r6, r8, fp, ip, sp}

080030ec <__start>:
 80030ec:	4837      	ldr	r0, [pc, #220]	; (80031cc <_HardFault_Handler+0x14>)
 80030ee:	4938      	ldr	r1, [pc, #224]	; (80031d0 <_HardFault_Handler+0x18>)
 80030f0:	4b38      	ldr	r3, [pc, #224]	; (80031d4 <_HardFault_Handler+0x1c>)
 80030f2:	4288      	cmp	r0, r1
 80030f4:	d006      	beq.n	8003104 <__start+0x18>
 80030f6:	4299      	cmp	r1, r3
 80030f8:	bf3e      	ittt	cc
 80030fa:	f850 2b04 	ldrcc.w	r2, [r0], #4
 80030fe:	f841 2b04 	strcc.w	r2, [r1], #4
 8003102:	e7f8      	bcc.n	80030f6 <__start+0xa>
 8003104:	4934      	ldr	r1, [pc, #208]	; (80031d8 <_HardFault_Handler+0x20>)
 8003106:	f04f 0200 	mov.w	r2, #0
 800310a:	428b      	cmp	r3, r1
 800310c:	bf3c      	itt	cc
 800310e:	f843 2b04 	strcc.w	r2, [r3], #4
 8003112:	e7fa      	bcc.n	800310a <__start+0x1e>
 8003114:	4831      	ldr	r0, [pc, #196]	; (80031dc <_HardFault_Handler+0x24>)
 8003116:	f380 8809 	msr	PSP, r0
 800311a:	4831      	ldr	r0, [pc, #196]	; (80031e0 <_HardFault_Handler+0x28>)
 800311c:	f380 8814 	msr	CONTROL, r0
 8003120:	f000 f9c8 	bl	80034b4 <Main>
 8003124:	e7fe      	b.n	8003124 <__start+0x38>

08003126 <_Print_Reg>:
 8003126:	e92d 5fff 	stmdb	sp!, {r0, r1, r2, r3, r4, r5, r6, r7, r8, r9, sl, fp, ip, lr}
 800312a:	f3ef 8103 	mrs	r1, PSR
 800312e:	b403      	push	{r0, r1}
 8003130:	f04f 060e 	mov.w	r6, #14
 8003134:	f04f 0404 	mov.w	r4, #4
 8003138:	4d2a      	ldr	r5, [pc, #168]	; (80031e4 <_HardFault_Handler+0x2c>)

0800313a <_loop>:
 800313a:	482b      	ldr	r0, [pc, #172]	; (80031e8 <_HardFault_Handler+0x30>)
 800313c:	4629      	mov	r1, r5
 800313e:	f85d 2004 	ldr.w	r2, [sp, r4]
 8003142:	f000 fe71 	bl	8003e28 <Uart1_Printf>
 8003146:	f104 0404 	add.w	r4, r4, #4
 800314a:	f105 0504 	add.w	r5, r5, #4
 800314e:	3e01      	subs	r6, #1
 8003150:	dcf3      	bgt.n	800313a <_loop>
 8003152:	4825      	ldr	r0, [pc, #148]	; (80031e8 <_HardFault_Handler+0x30>)
 8003154:	4629      	mov	r1, r5
 8003156:	f3ef 8209 	mrs	r2, PSP
 800315a:	f000 fe65 	bl	8003e28 <Uart1_Printf>
 800315e:	bc03      	pop	{r0, r1}
 8003160:	f381 8800 	msr	CPSR_f, r1
 8003164:	f381 8807 	msr	IEPSR, r1
 8003168:	e8bd 9fff 	ldmia.w	sp!, {r0, r1, r2, r3, r4, r5, r6, r7, r8, r9, sl, fp, ip, pc}

0800316c <fmt>:
 800316c:	3a207325 	bcc	881fe08 <__RW_LOAD_ADDR__+0x815988>
 8003170:	25783020 	ldrbcs	r3, [r8, #-32]!	; 0xffffffe0
 8003174:	0a58382e 	beq	9611234 <__RW_LOAD_ADDR__+0x1606db4>
	...

08003179 <_PSR>:
 8003179:	00525350 	subseq	r5, r2, r0, asr r3

0800317d <_r0>:
 800317d:	00303052 	eorseq	r3, r0, r2, asr r0

08003181 <_r1>:
 8003181:	00313052 	eorseq	r3, r1, r2, asr r0

08003185 <_r2>:
 8003185:	00323052 	eorseq	r3, r2, r2, asr r0

08003189 <_r3>:
 8003189:	00333052 	eorseq	r3, r3, r2, asr r0

0800318d <_r4>:
 800318d:	00343052 	eorseq	r3, r4, r2, asr r0

08003191 <_r5>:
 8003191:	00353052 	eorseq	r3, r5, r2, asr r0

08003195 <_r6>:
 8003195:	00363052 	eorseq	r3, r6, r2, asr r0

08003199 <_r7>:
 8003199:	00373052 	eorseq	r3, r7, r2, asr r0

0800319d <_r8>:
 800319d:	00383052 	eorseq	r3, r8, r2, asr r0

080031a1 <_r9>:
 80031a1:	00393052 	eorseq	r3, r9, r2, asr r0

080031a5 <_r10>:
 80031a5:	00303152 	eorseq	r3, r0, r2, asr r1

080031a9 <_r11>:
 80031a9:	00313152 	eorseq	r3, r1, r2, asr r1

080031ad <_r12>:
 80031ad:	00323152 	eorseq	r3, r2, r2, asr r1

080031b1 <_PSP>:
 80031b1:	00505350 	subseq	r5, r0, r0, asr r3
 80031b5:	01bf0000 			; <UNDEFINED> instruction: 0x01bf0000

080031b8 <_HardFault_Handler>:
 80031b8:	b501      	push	{r0, lr}
 80031ba:	f7ff ffb4 	bl	8003126 <_Print_Reg>
 80031be:	a802      	add	r0, sp, #8
 80031c0:	9901      	ldr	r1, [sp, #4]
 80031c2:	f3ef 8209 	mrs	r2, PSP
 80031c6:	f000 fa2f 	bl	8003628 <HardFault_Handler>
 80031ca:	bd01      	pop	{r0, pc}
 80031cc:	0800a480 	stmdaeq	r0, {r7, sl, sp, pc}
 80031d0:	20000000 	andcs	r0, r0, r0
 80031d4:	20000580 	andcs	r0, r0, r0, lsl #11
 80031d8:	200005d4 	ldrdcs	r0, [r0], -r4
 80031dc:	20004c00 	andcs	r4, r0, r0, lsl #24
 80031e0:	00000002 	andeq	r0, r0, r2
 80031e4:	08003179 	stmdaeq	r0, {r0, r3, r4, r5, r6, r8, ip, sp}
 80031e8:	0800316c 	stmdaeq	r0, {r2, r3, r5, r6, r8, ip, sp}

080031ec <Clock_Init>:
 80031ec:	f44f 5380 	mov.w	r3, #4096	; 0x1000
 80031f0:	f2c4 0302 	movt	r3, #16386	; 0x4002
 80031f4:	2201      	movs	r2, #1
 80031f6:	601a      	str	r2, [r3, #0]
 80031f8:	6819      	ldr	r1, [r3, #0]
 80031fa:	f44f 6280 	mov.w	r2, #1024	; 0x400
 80031fe:	f441 3180 	orr.w	r1, r1, #65536	; 0x10000
 8003202:	f2c0 021d 	movt	r2, #29
 8003206:	6019      	str	r1, [r3, #0]
 8003208:	605a      	str	r2, [r3, #4]
 800320a:	681a      	ldr	r2, [r3, #0]
 800320c:	4619      	mov	r1, r3
 800320e:	f042 7280 	orr.w	r2, r2, #16777216	; 0x1000000
 8003212:	601a      	str	r2, [r3, #0]
 8003214:	680a      	ldr	r2, [r1, #0]
 8003216:	f44f 5380 	mov.w	r3, #4096	; 0x1000
 800321a:	0192      	lsls	r2, r2, #6
 800321c:	f2c4 0302 	movt	r3, #16386	; 0x4002
 8003220:	d5f8      	bpl.n	8003214 <Clock_Init+0x28>
 8003222:	f44f 5200 	mov.w	r2, #8192	; 0x2000
 8003226:	f2c4 0202 	movt	r2, #16386	; 0x4002
 800322a:	6811      	ldr	r1, [r2, #0]
 800322c:	f021 0103 	bic.w	r1, r1, #3
 8003230:	f041 0102 	orr.w	r1, r1, #2
 8003234:	6011      	str	r1, [r2, #0]
 8003236:	685a      	ldr	r2, [r3, #4]
 8003238:	f022 0203 	bic.w	r2, r2, #3
 800323c:	f042 0202 	orr.w	r2, r2, #2
 8003240:	605a      	str	r2, [r3, #4]
 8003242:	4770      	bx	lr

08003244 <__get_PSP>:
 8003244:	f3ef 8009 	mrs	r0, PSP
 8003248:	4600      	mov	r0, r0
 800324a:	4770      	bx	lr

0800324c <__set_PSP>:
 800324c:	f380 8809 	msr	PSP, r0
 8003250:	4770      	bx	lr
 8003252:	bf00      	nop

08003254 <__get_MSP>:
 8003254:	f3ef 8008 	mrs	r0, MSP
 8003258:	4600      	mov	r0, r0
 800325a:	4770      	bx	lr

0800325c <__set_MSP>:
 800325c:	f380 8808 	msr	MSP, r0
 8003260:	4770      	bx	lr
 8003262:	bf00      	nop

08003264 <__get_BASEPRI>:
 8003264:	f3ef 8012 	mrs	r0, BASEPRI_MAX
 8003268:	4770      	bx	lr
 800326a:	bf00      	nop

0800326c <__set_BASEPRI>:
 800326c:	f380 8811 	msr	BASEPRI, r0
 8003270:	4770      	bx	lr
 8003272:	bf00      	nop

08003274 <__get_PRIMASK>:
 8003274:	f3ef 8010 	mrs	r0, PRIMASK
 8003278:	4770      	bx	lr
 800327a:	bf00      	nop

0800327c <__set_PRIMASK>:
 800327c:	f380 8810 	msr	PRIMASK, r0
 8003280:	4770      	bx	lr
 8003282:	bf00      	nop

08003284 <__get_FAULTMASK>:
 8003284:	f3ef 8013 	mrs	r0, FAULTMASK
 8003288:	4770      	bx	lr
 800328a:	bf00      	nop

0800328c <__set_FAULTMASK>:
 800328c:	f380 8813 	msr	FAULTMASK, r0
 8003290:	4770      	bx	lr
 8003292:	bf00      	nop

08003294 <__get_CONTROL>:
 8003294:	f3ef 8014 	mrs	r0, CONTROL
 8003298:	4770      	bx	lr
 800329a:	bf00      	nop

0800329c <__set_CONTROL>:
 800329c:	f380 8814 	msr	CONTROL, r0
 80032a0:	4770      	bx	lr
 80032a2:	bf00      	nop

080032a4 <__REV>:
 80032a4:	ba00      	rev	r0, r0
 80032a6:	4770      	bx	lr

080032a8 <__REV16>:
 80032a8:	ba40      	rev16	r0, r0
 80032aa:	4770      	bx	lr

080032ac <__REVSH>:
 80032ac:	bac0      	revsh	r0, r0
 80032ae:	4770      	bx	lr

080032b0 <__RBIT>:
 80032b0:	fa90 f0a0 	rbit	r0, r0
 80032b4:	4770      	bx	lr
 80032b6:	bf00      	nop

080032b8 <__LDREXB>:
 80032b8:	e8d0 0f4f 	ldrexb	r0, [r0]
 80032bc:	b2c0      	uxtb	r0, r0
 80032be:	4770      	bx	lr

080032c0 <__LDREXH>:
 80032c0:	e8d0 0f5f 	ldrexh	r0, [r0]
 80032c4:	b280      	uxth	r0, r0
 80032c6:	4770      	bx	lr

080032c8 <__LDREXW>:
 80032c8:	e850 0f00 	ldrex	r0, [r0]
 80032cc:	4770      	bx	lr
 80032ce:	bf00      	nop

080032d0 <__STREXB>:
 80032d0:	e8c1 0f43 	strexb	r3, r0, [r1]
 80032d4:	4618      	mov	r0, r3
 80032d6:	4770      	bx	lr

080032d8 <__STREXH>:
 80032d8:	e8c1 0f53 	strexh	r3, r0, [r1]
 80032dc:	4618      	mov	r0, r3
 80032de:	4770      	bx	lr

080032e0 <__STREXW>:
 80032e0:	e841 0000 	strex	r0, r0, [r1]
 80032e4:	4770      	bx	lr
 80032e6:	bf00      	nop

080032e8 <Key_Poll_Init>:
 80032e8:	f44f 5280 	mov.w	r2, #4096	; 0x1000
 80032ec:	f2c4 0202 	movt	r2, #16386	; 0x4002
 80032f0:	6991      	ldr	r1, [r2, #24]
 80032f2:	f44f 6340 	mov.w	r3, #3072	; 0xc00
 80032f6:	f041 0108 	orr.w	r1, r1, #8
 80032fa:	6191      	str	r1, [r2, #24]
 80032fc:	f2c4 0301 	movt	r3, #16385	; 0x4001
 8003300:	681a      	ldr	r2, [r3, #0]
 8003302:	f022 427f 	bic.w	r2, r2, #4278190080	; 0xff000000
 8003306:	f042 4288 	orr.w	r2, r2, #1140850688	; 0x44000000
 800330a:	601a      	str	r2, [r3, #0]
 800330c:	4770      	bx	lr
 800330e:	bf00      	nop

08003310 <Key_Get_Pressed>:
 8003310:	f44f 6140 	mov.w	r1, #3072	; 0xc00
 8003314:	f2c4 0101 	movt	r1, #16385	; 0x4001
 8003318:	6888      	ldr	r0, [r1, #8]
 800331a:	f644 6320 	movw	r3, #20000	; 0x4e20
 800331e:	f080 00c0 	eor.w	r0, r0, #192	; 0xc0
 8003322:	f3c0 1081 	ubfx	r0, r0, #6, #2
 8003326:	688a      	ldr	r2, [r1, #8]
 8003328:	f082 02c0 	eor.w	r2, r2, #192	; 0xc0
 800332c:	f3c2 1281 	ubfx	r2, r2, #6, #2
 8003330:	4290      	cmp	r0, r2
 8003332:	d1f1      	bne.n	8003318 <Key_Get_Pressed+0x8>
 8003334:	3b01      	subs	r3, #1
 8003336:	d1f6      	bne.n	8003326 <Key_Get_Pressed+0x16>
 8003338:	4770      	bx	lr
 800333a:	bf00      	nop

0800333c <Key_Wait_Key_Released>:
 800333c:	f44f 6040 	mov.w	r0, #3072	; 0xc00
 8003340:	f2c4 0001 	movt	r0, #16385	; 0x4001
 8003344:	6881      	ldr	r1, [r0, #8]
 8003346:	f644 6320 	movw	r3, #20000	; 0x4e20
 800334a:	f081 01c0 	eor.w	r1, r1, #192	; 0xc0
 800334e:	f3c1 1181 	ubfx	r1, r1, #6, #2
 8003352:	6882      	ldr	r2, [r0, #8]
 8003354:	f082 02c0 	eor.w	r2, r2, #192	; 0xc0
 8003358:	f3c2 1281 	ubfx	r2, r2, #6, #2
 800335c:	4291      	cmp	r1, r2
 800335e:	d1f1      	bne.n	8003344 <Key_Wait_Key_Released+0x8>
 8003360:	3b01      	subs	r3, #1
 8003362:	d1f6      	bne.n	8003352 <Key_Wait_Key_Released+0x16>
 8003364:	2900      	cmp	r1, #0
 8003366:	d1ed      	bne.n	8003344 <Key_Wait_Key_Released+0x8>
 8003368:	4770      	bx	lr
 800336a:	bf00      	nop

0800336c <Key_Wait_Key_Pressed>:
 800336c:	f44f 6140 	mov.w	r1, #3072	; 0xc00
 8003370:	f2c4 0101 	movt	r1, #16385	; 0x4001
 8003374:	6888      	ldr	r0, [r1, #8]
 8003376:	f644 6320 	movw	r3, #20000	; 0x4e20
 800337a:	f080 00c0 	eor.w	r0, r0, #192	; 0xc0
 800337e:	f3c0 1081 	ubfx	r0, r0, #6, #2
 8003382:	688a      	ldr	r2, [r1, #8]
 8003384:	f082 02c0 	eor.w	r2, r2, #192	; 0xc0
 8003388:	f3c2 1281 	ubfx	r2, r2, #6, #2
 800338c:	4290      	cmp	r0, r2
 800338e:	d1f1      	bne.n	8003374 <Key_Wait_Key_Pressed+0x8>
 8003390:	3b01      	subs	r3, #1
 8003392:	d1f6      	bne.n	8003382 <Key_Wait_Key_Pressed+0x16>
 8003394:	2800      	cmp	r0, #0
 8003396:	d0ed      	beq.n	8003374 <Key_Wait_Key_Pressed+0x8>
 8003398:	4770      	bx	lr
 800339a:	bf00      	nop

0800339c <Key_ISR_Enable>:
 800339c:	b410      	push	{r4}
 800339e:	b9b0      	cbnz	r0, 80033ce <Key_ISR_Enable+0x32>
 80033a0:	f44f 4261 	mov.w	r2, #57600	; 0xe100
 80033a4:	f2ce 0200 	movt	r2, #57344	; 0xe000
 80033a8:	f44f 0100 	mov.w	r1, #8388608	; 0x800000
 80033ac:	f44f 5380 	mov.w	r3, #4096	; 0x1000
 80033b0:	f8c2 1080 	str.w	r1, [r2, #128]	; 0x80
 80033b4:	f2c4 0302 	movt	r3, #16386	; 0x4002
 80033b8:	699a      	ldr	r2, [r3, #24]
 80033ba:	f022 0208 	bic.w	r2, r2, #8
 80033be:	619a      	str	r2, [r3, #24]
 80033c0:	699a      	ldr	r2, [r3, #24]
 80033c2:	f022 0201 	bic.w	r2, r2, #1
 80033c6:	619a      	str	r2, [r3, #24]
 80033c8:	f85d 4b04 	ldr.w	r4, [sp], #4
 80033cc:	4770      	bx	lr
 80033ce:	f44f 5380 	mov.w	r3, #4096	; 0x1000
 80033d2:	f2c4 0302 	movt	r3, #16386	; 0x4002
 80033d6:	699a      	ldr	r2, [r3, #24]
 80033d8:	f44f 6140 	mov.w	r1, #3072	; 0xc00
 80033dc:	f042 0208 	orr.w	r2, r2, #8
 80033e0:	619a      	str	r2, [r3, #24]
 80033e2:	699a      	ldr	r2, [r3, #24]
 80033e4:	f2c4 0101 	movt	r1, #16385	; 0x4001
 80033e8:	f042 0201 	orr.w	r2, r2, #1
 80033ec:	619a      	str	r2, [r3, #24]
 80033ee:	680b      	ldr	r3, [r1, #0]
 80033f0:	2200      	movs	r2, #0
 80033f2:	f023 437f 	bic.w	r3, r3, #4278190080	; 0xff000000
 80033f6:	f043 4388 	orr.w	r3, r3, #1140850688	; 0x44000000
 80033fa:	600b      	str	r3, [r1, #0]
 80033fc:	f2c4 0201 	movt	r2, #16385	; 0x4001
 8003400:	68d1      	ldr	r1, [r2, #12]
 8003402:	f44f 6380 	mov.w	r3, #1024	; 0x400
 8003406:	f421 417f 	bic.w	r1, r1, #65280	; 0xff00
 800340a:	f441 5188 	orr.w	r1, r1, #4352	; 0x1100
 800340e:	60d1      	str	r1, [r2, #12]
 8003410:	f2c4 0301 	movt	r3, #16385	; 0x4001
 8003414:	68dc      	ldr	r4, [r3, #12]
 8003416:	f44f 4261 	mov.w	r2, #57600	; 0xe100
 800341a:	f044 04c0 	orr.w	r4, r4, #192	; 0xc0
 800341e:	20c0      	movs	r0, #192	; 0xc0
 8003420:	f2ce 0200 	movt	r2, #57344	; 0xe000
 8003424:	f44f 0100 	mov.w	r1, #8388608	; 0x800000
 8003428:	60dc      	str	r4, [r3, #12]
 800342a:	6158      	str	r0, [r3, #20]
 800342c:	f8c2 1180 	str.w	r1, [r2, #384]	; 0x180
 8003430:	6818      	ldr	r0, [r3, #0]
 8003432:	f040 00c0 	orr.w	r0, r0, #192	; 0xc0
 8003436:	6018      	str	r0, [r3, #0]
 8003438:	6011      	str	r1, [r2, #0]
 800343a:	f85d 4b04 	ldr.w	r4, [sp], #4
 800343e:	4770      	bx	lr

08003440 <LED_Init>:
 8003440:	f44f 5280 	mov.w	r2, #4096	; 0x1000
 8003444:	f2c4 0202 	movt	r2, #16386	; 0x4002
 8003448:	6991      	ldr	r1, [r2, #24]
 800344a:	f44f 6340 	mov.w	r3, #3072	; 0xc00
 800344e:	f041 0108 	orr.w	r1, r1, #8
 8003452:	6191      	str	r1, [r2, #24]
 8003454:	f2c4 0301 	movt	r3, #16385	; 0x4001
 8003458:	685a      	ldr	r2, [r3, #4]
 800345a:	f022 02ff 	bic.w	r2, r2, #255	; 0xff
 800345e:	f042 0266 	orr.w	r2, r2, #102	; 0x66
 8003462:	605a      	str	r2, [r3, #4]
 8003464:	68da      	ldr	r2, [r3, #12]
 8003466:	f442 7240 	orr.w	r2, r2, #768	; 0x300
 800346a:	60da      	str	r2, [r3, #12]
 800346c:	4770      	bx	lr
 800346e:	bf00      	nop

08003470 <LED_Display>:
 8003470:	f44f 6340 	mov.w	r3, #3072	; 0xc00
 8003474:	f2c4 0301 	movt	r3, #16385	; 0x4001
 8003478:	68da      	ldr	r2, [r3, #12]
 800347a:	43c0      	mvns	r0, r0
 800347c:	f000 0003 	and.w	r0, r0, #3
 8003480:	f422 7240 	bic.w	r2, r2, #768	; 0x300
 8003484:	ea42 2200 	orr.w	r2, r2, r0, lsl #8
 8003488:	60da      	str	r2, [r3, #12]
 800348a:	4770      	bx	lr

0800348c <LED_All_On>:
 800348c:	f44f 6340 	mov.w	r3, #3072	; 0xc00
 8003490:	f2c4 0301 	movt	r3, #16385	; 0x4001
 8003494:	68da      	ldr	r2, [r3, #12]
 8003496:	f422 7240 	bic.w	r2, r2, #768	; 0x300
 800349a:	60da      	str	r2, [r3, #12]
 800349c:	4770      	bx	lr
 800349e:	bf00      	nop

080034a0 <LED_All_Off>:
 80034a0:	f44f 6340 	mov.w	r3, #3072	; 0xc00
 80034a4:	f2c4 0301 	movt	r3, #16385	; 0x4001
 80034a8:	68da      	ldr	r2, [r3, #12]
 80034aa:	f442 7240 	orr.w	r2, r2, #768	; 0x300
 80034ae:	60da      	str	r2, [r3, #12]
 80034b0:	4770      	bx	lr
 80034b2:	bf00      	nop

080034b4 <Main>:
 80034b4:	e92d 43f8 	stmdb	sp!, {r3, r4, r5, r6, r7, r8, r9, lr}
 80034b8:	f7ff fe98 	bl	80031ec <Clock_Init>
 80034bc:	f7ff ffc0 	bl	8003440 <LED_Init>
 80034c0:	f44f 30e1 	mov.w	r0, #115200	; 0x1c200
 80034c4:	f000 fc14 	bl	8003cf0 <Uart1_Init>
 80034c8:	f7ff ff0e 	bl	80032e8 <Key_Poll_Init>
 80034cc:	f44f 436d 	mov.w	r3, #60672	; 0xed00
 80034d0:	f44f 5240 	mov.w	r2, #12288	; 0x3000
 80034d4:	f2ce 0300 	movt	r3, #57344	; 0xe000
 80034d8:	f6c0 0200 	movt	r2, #2048	; 0x800
 80034dc:	2700      	movs	r7, #0
 80034de:	f24a 1090 	movw	r0, #41360	; 0xa190
 80034e2:	609a      	str	r2, [r3, #8]
 80034e4:	f6c0 0000 	movt	r0, #2048	; 0x800
 80034e8:	625f      	str	r7, [r3, #36]	; 0x24
 80034ea:	f000 fc9d 	bl	8003e28 <Uart1_Printf>
 80034ee:	f240 5588 	movw	r5, #1416	; 0x588
 80034f2:	2001      	movs	r0, #1
 80034f4:	f240 548c 	movw	r4, #1420	; 0x58c
 80034f8:	f7ff ff50 	bl	800339c <Key_ISR_Enable>
 80034fc:	f2c2 0500 	movt	r5, #8192	; 0x2000
 8003500:	2001      	movs	r0, #1
 8003502:	f2c2 0400 	movt	r4, #8192	; 0x2000
 8003506:	f240 5890 	movw	r8, #1424	; 0x590
 800350a:	f000 fcd5 	bl	8003eb8 <Uart1_RX_Interrupt_Enable>
 800350e:	462e      	mov	r6, r5
 8003510:	46a1      	mov	r9, r4
 8003512:	f2c2 0800 	movt	r8, #8192	; 0x2000
 8003516:	e00d      	b.n	8003534 <Main+0x80>
 8003518:	6823      	ldr	r3, [r4, #0]
 800351a:	b9cb      	cbnz	r3, 8003550 <Main+0x9c>
 800351c:	2001      	movs	r0, #1
 800351e:	f7ff ffa7 	bl	8003470 <LED_Display>
 8003522:	20c8      	movs	r0, #200	; 0xc8
 8003524:	f000 faac 	bl	8003a80 <TIM2_Delay>
 8003528:	2002      	movs	r0, #2
 800352a:	f7ff ffa1 	bl	8003470 <LED_Display>
 800352e:	20c8      	movs	r0, #200	; 0xc8
 8003530:	f000 faa6 	bl	8003a80 <TIM2_Delay>
 8003534:	682b      	ldr	r3, [r5, #0]
 8003536:	2b00      	cmp	r3, #0
 8003538:	d0ee      	beq.n	8003518 <Main+0x64>
 800353a:	f24a 10a8 	movw	r0, #41384	; 0xa1a8
 800353e:	6831      	ldr	r1, [r6, #0]
 8003540:	f6c0 0000 	movt	r0, #2048	; 0x800
 8003544:	f000 fc70 	bl	8003e28 <Uart1_Printf>
 8003548:	6037      	str	r7, [r6, #0]
 800354a:	6823      	ldr	r3, [r4, #0]
 800354c:	2b00      	cmp	r3, #0
 800354e:	d0e5      	beq.n	800351c <Main+0x68>
 8003550:	f24a 10b0 	movw	r0, #41392	; 0xa1b0
 8003554:	f8d8 1000 	ldr.w	r1, [r8]
 8003558:	f6c0 0000 	movt	r0, #2048	; 0x800
 800355c:	f000 fc64 	bl	8003e28 <Uart1_Printf>
 8003560:	f8c9 7000 	str.w	r7, [r9]
 8003564:	e7da      	b.n	800351c <Main+0x68>
 8003566:	bf00      	nop

08003568 <_sbrk>:
 8003568:	b410      	push	{r4}
 800356a:	f240 5380 	movw	r3, #1408	; 0x580
 800356e:	f2c2 0300 	movt	r3, #8192	; 0x2000
 8003572:	6819      	ldr	r1, [r3, #0]
 8003574:	4602      	mov	r2, r0
 8003576:	b181      	cbz	r1, 800359a <_sbrk+0x32>
 8003578:	4c0b      	ldr	r4, [pc, #44]	; (80035a8 <_sbrk+0x40>)
 800357a:	4608      	mov	r0, r1
 800357c:	f024 0107 	bic.w	r1, r4, #7
 8003580:	3207      	adds	r2, #7
 8003582:	4402      	add	r2, r0
 8003584:	f022 0207 	bic.w	r2, r2, #7
 8003588:	f501 5180 	add.w	r1, r1, #4096	; 0x1000
 800358c:	428a      	cmp	r2, r1
 800358e:	bf34      	ite	cc
 8003590:	601a      	strcc	r2, [r3, #0]
 8003592:	2000      	movcs	r0, #0
 8003594:	f85d 4b04 	ldr.w	r4, [sp], #4
 8003598:	4770      	bx	lr
 800359a:	4903      	ldr	r1, [pc, #12]	; (80035a8 <_sbrk+0x40>)
 800359c:	f021 0107 	bic.w	r1, r1, #7
 80035a0:	6019      	str	r1, [r3, #0]
 80035a2:	4608      	mov	r0, r1
 80035a4:	e7ec      	b.n	8003580 <_sbrk+0x18>
 80035a6:	bf00      	nop
 80035a8:	200005db 	ldrdcs	r0, [r0], -fp

080035ac <Stack_Dump>:
 80035ac:	b5f0      	push	{r4, r5, r6, r7, lr}
 80035ae:	2300      	movs	r3, #0
 80035b0:	4d0b      	ldr	r5, [pc, #44]	; (80035e0 <Stack_Dump+0x34>)
 80035b2:	b083      	sub	sp, #12
 80035b4:	4606      	mov	r6, r0
 80035b6:	460f      	mov	r7, r1
 80035b8:	461c      	mov	r4, r3
 80035ba:	f857 2023 	ldr.w	r2, [r7, r3, lsl #2]
 80035be:	f24a 10bc 	movw	r0, #41404	; 0xa1bc
 80035c2:	f855 3f04 	ldr.w	r3, [r5, #4]!
 80035c6:	9200      	str	r2, [sp, #0]
 80035c8:	f6c0 0000 	movt	r0, #2048	; 0x800
 80035cc:	4622      	mov	r2, r4
 80035ce:	4631      	mov	r1, r6
 80035d0:	3401      	adds	r4, #1
 80035d2:	f000 fc29 	bl	8003e28 <Uart1_Printf>
 80035d6:	2c08      	cmp	r4, #8
 80035d8:	4623      	mov	r3, r4
 80035da:	d1ee      	bne.n	80035ba <Stack_Dump+0xe>
 80035dc:	b003      	add	sp, #12
 80035de:	bdf0      	pop	{r4, r5, r6, r7, pc}
 80035e0:	08009ffc 	stmdaeq	r0, {r2, r3, r4, r5, r6, r7, r8, r9, sl, fp, ip, pc}

080035e4 <Invalid_ISR>:
 80035e4:	b508      	push	{r3, lr}
 80035e6:	f44f 446d 	mov.w	r4, #60672	; 0xed00
 80035ea:	f2ce 0400 	movt	r4, #57344	; 0xe000
 80035ee:	6861      	ldr	r1, [r4, #4]
 80035f0:	f24a 10d0 	movw	r0, #41424	; 0xa1d0
 80035f4:	f3c1 0108 	ubfx	r1, r1, #0, #9
 80035f8:	f6c0 0000 	movt	r0, #2048	; 0x800
 80035fc:	f000 fc14 	bl	8003e28 <Uart1_Printf>
 8003600:	6861      	ldr	r1, [r4, #4]
 8003602:	f24a 10e8 	movw	r0, #41448	; 0xa1e8
 8003606:	f3c1 0108 	ubfx	r1, r1, #0, #9
 800360a:	3910      	subs	r1, #16
 800360c:	f6c0 0000 	movt	r0, #2048	; 0x800
 8003610:	f000 fc0a 	bl	8003e28 <Uart1_Printf>
 8003614:	e7fe      	b.n	8003614 <Invalid_ISR+0x30>
 8003616:	bf00      	nop

08003618 <NMI_Handler>:
 8003618:	f24a 10fc 	movw	r0, #41468	; 0xa1fc
 800361c:	b508      	push	{r3, lr}
 800361e:	f6c0 0000 	movt	r0, #2048	; 0x800
 8003622:	f000 fc01 	bl	8003e28 <Uart1_Printf>
 8003626:	e7fe      	b.n	8003626 <NMI_Handler+0xe>

08003628 <HardFault_Handler>:
 8003628:	4604      	mov	r4, r0
 800362a:	f24a 2004 	movw	r0, #41476	; 0xa204
 800362e:	b508      	push	{r3, lr}
 8003630:	f6c0 0000 	movt	r0, #2048	; 0x800
 8003634:	4616      	mov	r6, r2
 8003636:	460d      	mov	r5, r1
 8003638:	f000 fbf6 	bl	8003e28 <Uart1_Printf>
 800363c:	f24a 2014 	movw	r0, #41492	; 0xa214
 8003640:	4629      	mov	r1, r5
 8003642:	f6c0 0000 	movt	r0, #2048	; 0x800
 8003646:	f000 fbef 	bl	8003e28 <Uart1_Printf>
 800364a:	f24a 202c 	movw	r0, #41516	; 0xa22c
 800364e:	4621      	mov	r1, r4
 8003650:	f6c0 0000 	movt	r0, #2048	; 0x800
 8003654:	f000 fbe8 	bl	8003e28 <Uart1_Printf>
 8003658:	f24a 2038 	movw	r0, #41528	; 0xa238
 800365c:	4631      	mov	r1, r6
 800365e:	f6c0 0000 	movt	r0, #2048	; 0x800
 8003662:	f000 fbe1 	bl	8003e28 <Uart1_Printf>
 8003666:	230f      	movs	r3, #15
 8003668:	f2cf 0300 	movt	r3, #61440	; 0xf000
 800366c:	2209      	movs	r2, #9
 800366e:	402b      	ands	r3, r5
 8003670:	f2cf 0200 	movt	r2, #61440	; 0xf000
 8003674:	4293      	cmp	r3, r2
 8003676:	d050      	beq.n	800371a <HardFault_Handler+0xf2>
 8003678:	220d      	movs	r2, #13
 800367a:	f2cf 0200 	movt	r2, #61440	; 0xf000
 800367e:	4293      	cmp	r3, r2
 8003680:	d059      	beq.n	8003736 <HardFault_Handler+0x10e>
 8003682:	2201      	movs	r2, #1
 8003684:	f2cf 0200 	movt	r2, #61440	; 0xf000
 8003688:	4293      	cmp	r3, r2
 800368a:	bf04      	itt	eq
 800368c:	f24a 2044 	movweq	r0, #41540	; 0xa244
 8003690:	f6c0 0000 	movteq	r0, #2048	; 0x800
 8003694:	d045      	beq.n	8003722 <HardFault_Handler+0xfa>
 8003696:	f24a 20c8 	movw	r0, #41672	; 0xa2c8
 800369a:	f005 010f 	and.w	r1, r5, #15
 800369e:	f6c0 0000 	movt	r0, #2048	; 0x800
 80036a2:	f000 fbc1 	bl	8003e28 <Uart1_Printf>
 80036a6:	f44f 446d 	mov.w	r4, #60672	; 0xed00
 80036aa:	f2ce 0400 	movt	r4, #57344	; 0xe000
 80036ae:	f24a 20f4 	movw	r0, #41716	; 0xa2f4
 80036b2:	6a61      	ldr	r1, [r4, #36]	; 0x24
 80036b4:	f6c0 0000 	movt	r0, #2048	; 0x800
 80036b8:	f000 fbb6 	bl	8003e28 <Uart1_Printf>
 80036bc:	f24a 3004 	movw	r0, #41732	; 0xa304
 80036c0:	6aa1      	ldr	r1, [r4, #40]	; 0x28
 80036c2:	f6c0 0000 	movt	r0, #2048	; 0x800
 80036c6:	f000 fbaf 	bl	8003e28 <Uart1_Printf>
 80036ca:	6aa1      	ldr	r1, [r4, #40]	; 0x28
 80036cc:	f24a 3024 	movw	r0, #41764	; 0xa324
 80036d0:	f3c1 11c0 	ubfx	r1, r1, #7, #1
 80036d4:	f6c0 0000 	movt	r0, #2048	; 0x800
 80036d8:	f000 fba6 	bl	8003e28 <Uart1_Printf>
 80036dc:	f24a 3038 	movw	r0, #41784	; 0xa338
 80036e0:	6b61      	ldr	r1, [r4, #52]	; 0x34
 80036e2:	f6c0 0000 	movt	r0, #2048	; 0x800
 80036e6:	f000 fb9f 	bl	8003e28 <Uart1_Printf>
 80036ea:	6aa1      	ldr	r1, [r4, #40]	; 0x28
 80036ec:	f24a 3048 	movw	r0, #41800	; 0xa348
 80036f0:	f3c1 31c0 	ubfx	r1, r1, #15, #1
 80036f4:	f6c0 0000 	movt	r0, #2048	; 0x800
 80036f8:	f000 fb96 	bl	8003e28 <Uart1_Printf>
 80036fc:	f24a 305c 	movw	r0, #41820	; 0xa35c
 8003700:	6ba1      	ldr	r1, [r4, #56]	; 0x38
 8003702:	f6c0 0000 	movt	r0, #2048	; 0x800
 8003706:	f000 fb8f 	bl	8003e28 <Uart1_Printf>
 800370a:	f24a 306c 	movw	r0, #41836	; 0xa36c
 800370e:	6ae1      	ldr	r1, [r4, #44]	; 0x2c
 8003710:	f6c0 0000 	movt	r0, #2048	; 0x800
 8003714:	f000 fb88 	bl	8003e28 <Uart1_Printf>
 8003718:	e7fe      	b.n	8003718 <HardFault_Handler+0xf0>
 800371a:	f24a 206c 	movw	r0, #41580	; 0xa26c
 800371e:	f6c0 0000 	movt	r0, #2048	; 0x800
 8003722:	f000 fb81 	bl	8003e28 <Uart1_Printf>
 8003726:	f24a 2068 	movw	r0, #41576	; 0xa268
 800372a:	4621      	mov	r1, r4
 800372c:	f6c0 0000 	movt	r0, #2048	; 0x800
 8003730:	f7ff ff3c 	bl	80035ac <Stack_Dump>
 8003734:	e7b7      	b.n	80036a6 <HardFault_Handler+0x7e>
 8003736:	f24a 2098 	movw	r0, #41624	; 0xa298
 800373a:	f6c0 0000 	movt	r0, #2048	; 0x800
 800373e:	f000 fb73 	bl	8003e28 <Uart1_Printf>
 8003742:	f24a 20c4 	movw	r0, #41668	; 0xa2c4
 8003746:	4631      	mov	r1, r6
 8003748:	f6c0 0000 	movt	r0, #2048	; 0x800
 800374c:	f7ff ff2e 	bl	80035ac <Stack_Dump>
 8003750:	e7a9      	b.n	80036a6 <HardFault_Handler+0x7e>
 8003752:	bf00      	nop

08003754 <MemManage_Handler>:
 8003754:	f24a 3090 	movw	r0, #41872	; 0xa390
 8003758:	b508      	push	{r3, lr}
 800375a:	f6c0 0000 	movt	r0, #2048	; 0x800
 800375e:	f000 fb63 	bl	8003e28 <Uart1_Printf>
 8003762:	e7fe      	b.n	8003762 <MemManage_Handler+0xe>

08003764 <BusFault_Handler>:
 8003764:	f24a 30ac 	movw	r0, #41900	; 0xa3ac
 8003768:	b508      	push	{r3, lr}
 800376a:	f6c0 0000 	movt	r0, #2048	; 0x800
 800376e:	f000 fb5b 	bl	8003e28 <Uart1_Printf>
 8003772:	e7fe      	b.n	8003772 <BusFault_Handler+0xe>

08003774 <UsageFault_Handler>:
 8003774:	f24a 30b8 	movw	r0, #41912	; 0xa3b8
 8003778:	b508      	push	{r3, lr}
 800377a:	f6c0 0000 	movt	r0, #2048	; 0x800
 800377e:	f000 fb53 	bl	8003e28 <Uart1_Printf>
 8003782:	e7fe      	b.n	8003782 <UsageFault_Handler+0xe>

08003784 <SVC_Handler>:
 8003784:	f24a 30c8 	movw	r0, #41928	; 0xa3c8
 8003788:	b508      	push	{r3, lr}
 800378a:	f6c0 0000 	movt	r0, #2048	; 0x800
 800378e:	f000 fb4b 	bl	8003e28 <Uart1_Printf>
 8003792:	e7fe      	b.n	8003792 <SVC_Handler+0xe>

08003794 <DebugMon_Handler>:
 8003794:	f24a 30d4 	movw	r0, #41940	; 0xa3d4
 8003798:	b508      	push	{r3, lr}
 800379a:	f6c0 0000 	movt	r0, #2048	; 0x800
 800379e:	f000 fb43 	bl	8003e28 <Uart1_Printf>
 80037a2:	e7fe      	b.n	80037a2 <DebugMon_Handler+0xe>

080037a4 <PendSV_Handler>:
 80037a4:	f24a 30e4 	movw	r0, #41956	; 0xa3e4
 80037a8:	b508      	push	{r3, lr}
 80037aa:	f6c0 0000 	movt	r0, #2048	; 0x800
 80037ae:	f000 fb3b 	bl	8003e28 <Uart1_Printf>
 80037b2:	e7fe      	b.n	80037b2 <PendSV_Handler+0xe>

080037b4 <SysTick_Handler>:
 80037b4:	f240 5384 	movw	r3, #1412	; 0x584
 80037b8:	f2c2 0300 	movt	r3, #8192	; 0x2000
 80037bc:	2201      	movs	r2, #1
 80037be:	601a      	str	r2, [r3, #0]
 80037c0:	4770      	bx	lr
 80037c2:	bf00      	nop

080037c4 <WWDG_IRQHandler>:
 80037c4:	b508      	push	{r3, lr}
 80037c6:	f7ff ff0d 	bl	80035e4 <Invalid_ISR>
 80037ca:	bf00      	nop

080037cc <PVD_IRQHandler>:
 80037cc:	b508      	push	{r3, lr}
 80037ce:	f7ff ff09 	bl	80035e4 <Invalid_ISR>
 80037d2:	bf00      	nop

080037d4 <TAMPER_IRQHandler>:
 80037d4:	b508      	push	{r3, lr}
 80037d6:	f7ff ff05 	bl	80035e4 <Invalid_ISR>
 80037da:	bf00      	nop

080037dc <RTC_IRQHandler>:
 80037dc:	b508      	push	{r3, lr}
 80037de:	f7ff ff01 	bl	80035e4 <Invalid_ISR>
 80037e2:	bf00      	nop

080037e4 <FLASH_IRQHandler>:
 80037e4:	b508      	push	{r3, lr}
 80037e6:	f7ff fefd 	bl	80035e4 <Invalid_ISR>
 80037ea:	bf00      	nop

080037ec <RCC_IRQHandler>:
 80037ec:	b508      	push	{r3, lr}
 80037ee:	f7ff fef9 	bl	80035e4 <Invalid_ISR>
 80037f2:	bf00      	nop

080037f4 <EXTI0_IRQHandler>:
 80037f4:	b508      	push	{r3, lr}
 80037f6:	f7ff fef5 	bl	80035e4 <Invalid_ISR>
 80037fa:	bf00      	nop

080037fc <EXTI1_IRQHandler>:
 80037fc:	b508      	push	{r3, lr}
 80037fe:	f7ff fef1 	bl	80035e4 <Invalid_ISR>
 8003802:	bf00      	nop

08003804 <EXTI2_IRQHandler>:
 8003804:	b508      	push	{r3, lr}
 8003806:	f7ff feed 	bl	80035e4 <Invalid_ISR>
 800380a:	bf00      	nop

0800380c <EXTI3_IRQHandler>:
 800380c:	b508      	push	{r3, lr}
 800380e:	f7ff fee9 	bl	80035e4 <Invalid_ISR>
 8003812:	bf00      	nop

08003814 <EXTI4_IRQHandler>:
 8003814:	b508      	push	{r3, lr}
 8003816:	f7ff fee5 	bl	80035e4 <Invalid_ISR>
 800381a:	bf00      	nop

0800381c <DMA1_Channel1_IRQHandler>:
 800381c:	b508      	push	{r3, lr}
 800381e:	f7ff fee1 	bl	80035e4 <Invalid_ISR>
 8003822:	bf00      	nop

08003824 <DMA1_Channel2_IRQHandler>:
 8003824:	b508      	push	{r3, lr}
 8003826:	f7ff fedd 	bl	80035e4 <Invalid_ISR>
 800382a:	bf00      	nop

0800382c <DMA1_Channel3_IRQHandler>:
 800382c:	b508      	push	{r3, lr}
 800382e:	f7ff fed9 	bl	80035e4 <Invalid_ISR>
 8003832:	bf00      	nop

08003834 <DMA1_Channel4_IRQHandler>:
 8003834:	b508      	push	{r3, lr}
 8003836:	f7ff fed5 	bl	80035e4 <Invalid_ISR>
 800383a:	bf00      	nop

0800383c <DMA1_Channel5_IRQHandler>:
 800383c:	b508      	push	{r3, lr}
 800383e:	f7ff fed1 	bl	80035e4 <Invalid_ISR>
 8003842:	bf00      	nop

08003844 <DMA1_Channel6_IRQHandler>:
 8003844:	b508      	push	{r3, lr}
 8003846:	f7ff fecd 	bl	80035e4 <Invalid_ISR>
 800384a:	bf00      	nop

0800384c <DMA1_Channel7_IRQHandler>:
 800384c:	b508      	push	{r3, lr}
 800384e:	f7ff fec9 	bl	80035e4 <Invalid_ISR>
 8003852:	bf00      	nop

08003854 <ADC1_2_IRQHandler>:
 8003854:	b508      	push	{r3, lr}
 8003856:	f7ff fec5 	bl	80035e4 <Invalid_ISR>
 800385a:	bf00      	nop

0800385c <USB_HP_CAN_TX_IRQHandler>:
 800385c:	b508      	push	{r3, lr}
 800385e:	f7ff fec1 	bl	80035e4 <Invalid_ISR>
 8003862:	bf00      	nop

08003864 <USB_LP_CAN_RX0_IRQHandler>:
 8003864:	b508      	push	{r3, lr}
 8003866:	f7ff febd 	bl	80035e4 <Invalid_ISR>
 800386a:	bf00      	nop

0800386c <CAN_RX1_IRQHandler>:
 800386c:	b508      	push	{r3, lr}
 800386e:	f7ff feb9 	bl	80035e4 <Invalid_ISR>
 8003872:	bf00      	nop

08003874 <CAN_SCE_IRQHandler>:
 8003874:	b508      	push	{r3, lr}
 8003876:	f7ff feb5 	bl	80035e4 <Invalid_ISR>
 800387a:	bf00      	nop

0800387c <EXTI9_5_IRQHandler>:
 800387c:	b430      	push	{r4, r5}
 800387e:	f44f 6380 	mov.w	r3, #1024	; 0x400
 8003882:	f2c4 0301 	movt	r3, #16385	; 0x4001
 8003886:	695d      	ldr	r5, [r3, #20]
 8003888:	f240 5284 	movw	r2, #1412	; 0x584
 800388c:	f44f 4161 	mov.w	r1, #57600	; 0xe100
 8003890:	f3c5 1581 	ubfx	r5, r5, #6, #2
 8003894:	24c0      	movs	r4, #192	; 0xc0
 8003896:	f2c2 0200 	movt	r2, #8192	; 0x2000
 800389a:	f2ce 0100 	movt	r1, #57344	; 0xe000
 800389e:	f44f 0000 	mov.w	r0, #8388608	; 0x800000
 80038a2:	6055      	str	r5, [r2, #4]
 80038a4:	615c      	str	r4, [r3, #20]
 80038a6:	f8c1 0180 	str.w	r0, [r1, #384]	; 0x180
 80038aa:	bc30      	pop	{r4, r5}
 80038ac:	4770      	bx	lr
 80038ae:	bf00      	nop

080038b0 <TIM1_BRK_IRQHandler>:
 80038b0:	b508      	push	{r3, lr}
 80038b2:	f7ff fe97 	bl	80035e4 <Invalid_ISR>
 80038b6:	bf00      	nop

080038b8 <TIM1_UP_IRQHandler>:
 80038b8:	b508      	push	{r3, lr}
 80038ba:	f7ff fe93 	bl	80035e4 <Invalid_ISR>
 80038be:	bf00      	nop

080038c0 <TIM1_TRG_COM_IRQHandler>:
 80038c0:	b508      	push	{r3, lr}
 80038c2:	f7ff fe8f 	bl	80035e4 <Invalid_ISR>
 80038c6:	bf00      	nop

080038c8 <TIM1_CC_IRQHandler>:
 80038c8:	b508      	push	{r3, lr}
 80038ca:	f7ff fe8b 	bl	80035e4 <Invalid_ISR>
 80038ce:	bf00      	nop

080038d0 <TIM2_IRQHandler>:
 80038d0:	b508      	push	{r3, lr}
 80038d2:	f7ff fe87 	bl	80035e4 <Invalid_ISR>
 80038d6:	bf00      	nop

080038d8 <TIM3_IRQHandler>:
 80038d8:	b508      	push	{r3, lr}
 80038da:	f7ff fe83 	bl	80035e4 <Invalid_ISR>
 80038de:	bf00      	nop

080038e0 <TIM4_IRQHandler>:
 80038e0:	b508      	push	{r3, lr}
 80038e2:	f7ff fe7f 	bl	80035e4 <Invalid_ISR>
 80038e6:	bf00      	nop

080038e8 <I2C1_EV_IRQHandler>:
 80038e8:	b508      	push	{r3, lr}
 80038ea:	f7ff fe7b 	bl	80035e4 <Invalid_ISR>
 80038ee:	bf00      	nop

080038f0 <I2C1_ER_IRQHandler>:
 80038f0:	b508      	push	{r3, lr}
 80038f2:	f7ff fe77 	bl	80035e4 <Invalid_ISR>
 80038f6:	bf00      	nop

080038f8 <I2C2_EV_IRQHandler>:
 80038f8:	b508      	push	{r3, lr}
 80038fa:	f7ff fe73 	bl	80035e4 <Invalid_ISR>
 80038fe:	bf00      	nop

08003900 <I2C2_ER_IRQHandler>:
 8003900:	b508      	push	{r3, lr}
 8003902:	f7ff fe6f 	bl	80035e4 <Invalid_ISR>
 8003906:	bf00      	nop

08003908 <SPI1_IRQHandler>:
 8003908:	b508      	push	{r3, lr}
 800390a:	f7ff fe6b 	bl	80035e4 <Invalid_ISR>
 800390e:	bf00      	nop

08003910 <SPI2_IRQHandler>:
 8003910:	b508      	push	{r3, lr}
 8003912:	f7ff fe67 	bl	80035e4 <Invalid_ISR>
 8003916:	bf00      	nop

08003918 <USART1_IRQHandler>:
 8003918:	f240 5384 	movw	r3, #1412	; 0x584
 800391c:	f2c2 0300 	movt	r3, #8192	; 0x2000
 8003920:	2201      	movs	r2, #1
 8003922:	609a      	str	r2, [r3, #8]
 8003924:	4770      	bx	lr
 8003926:	bf00      	nop

08003928 <USART2_IRQHandler>:
 8003928:	b508      	push	{r3, lr}
 800392a:	f7ff fe5b 	bl	80035e4 <Invalid_ISR>
 800392e:	bf00      	nop

08003930 <USART3_IRQHandler>:
 8003930:	b508      	push	{r3, lr}
 8003932:	f7ff fe57 	bl	80035e4 <Invalid_ISR>
 8003936:	bf00      	nop

08003938 <EXTI15_10_IRQHandler>:
 8003938:	b508      	push	{r3, lr}
 800393a:	f7ff fe53 	bl	80035e4 <Invalid_ISR>
 800393e:	bf00      	nop

08003940 <RTCAlarm_IRQHandler>:
 8003940:	b508      	push	{r3, lr}
 8003942:	f7ff fe4f 	bl	80035e4 <Invalid_ISR>
 8003946:	bf00      	nop

08003948 <USBWakeUp_IRQHandler>:
 8003948:	b508      	push	{r3, lr}
 800394a:	f7ff fe4b 	bl	80035e4 <Invalid_ISR>
 800394e:	bf00      	nop

08003950 <SysTick_Run>:
 8003950:	b538      	push	{r3, r4, r5, lr}
 8003952:	f24e 0410 	movw	r4, #57360	; 0xe010
 8003956:	f2ce 0400 	movt	r4, #57344	; 0xe000
 800395a:	2500      	movs	r5, #0
 800395c:	6025      	str	r5, [r4, #0]
 800395e:	f005 fc83 	bl	8009268 <__aeabi_ui2d>
 8003962:	a30b      	add	r3, pc, #44	; (adr r3, 8003990 <SysTick_Run+0x40>)
 8003964:	e9d3 2300 	ldrd	r2, r3, [r3]
 8003968:	f005 fcf4 	bl	8009354 <__aeabi_dmul>
 800396c:	2300      	movs	r3, #0
 800396e:	f6c3 73e0 	movt	r3, #16352	; 0x3fe0
 8003972:	2200      	movs	r2, #0
 8003974:	f005 fb3c 	bl	8008ff0 <__adddf3>
 8003978:	f005 ffae 	bl	80098d8 <__aeabi_d2uiz>
 800397c:	6060      	str	r0, [r4, #4]
 800397e:	60a5      	str	r5, [r4, #8]
 8003980:	6823      	ldr	r3, [r4, #0]
 8003982:	f043 0301 	orr.w	r3, r3, #1
 8003986:	6023      	str	r3, [r4, #0]
 8003988:	bd38      	pop	{r3, r4, r5, pc}
 800398a:	bf00      	nop
 800398c:	f3af 8000 	nop.w
 8003990:	00000000 	andeq	r0, r0, r0
 8003994:	40c19400 	sbcmi	r9, r1, r0, lsl #8

08003998 <SysTick_Check_Timeout>:
 8003998:	f24e 0310 	movw	r3, #57360	; 0xe010
 800399c:	f2ce 0300 	movt	r3, #57344	; 0xe000
 80039a0:	6818      	ldr	r0, [r3, #0]
 80039a2:	f3c0 4000 	ubfx	r0, r0, #16, #1
 80039a6:	4770      	bx	lr

080039a8 <SysTick_Get_Time>:
 80039a8:	f24e 0310 	movw	r3, #57360	; 0xe010
 80039ac:	f2ce 0300 	movt	r3, #57344	; 0xe000
 80039b0:	6898      	ldr	r0, [r3, #8]
 80039b2:	4770      	bx	lr

080039b4 <SysTick_Get_Load_Time>:
 80039b4:	f24e 0310 	movw	r3, #57360	; 0xe010
 80039b8:	f2ce 0300 	movt	r3, #57344	; 0xe000
 80039bc:	6858      	ldr	r0, [r3, #4]
 80039be:	4770      	bx	lr

080039c0 <SysTick_Stop>:
 80039c0:	f24e 0310 	movw	r3, #57360	; 0xe010
 80039c4:	f2ce 0300 	movt	r3, #57344	; 0xe000
 80039c8:	2200      	movs	r2, #0
 80039ca:	601a      	str	r2, [r3, #0]
 80039cc:	4770      	bx	lr
 80039ce:	bf00      	nop

080039d0 <SysTick_OS_Tick>:
 80039d0:	b510      	push	{r4, lr}
 80039d2:	f24e 0410 	movw	r4, #57360	; 0xe010
 80039d6:	f2ce 0400 	movt	r4, #57344	; 0xe000
 80039da:	2302      	movs	r3, #2
 80039dc:	6023      	str	r3, [r4, #0]
 80039de:	f005 fc43 	bl	8009268 <__aeabi_ui2d>
 80039e2:	a30b      	add	r3, pc, #44	; (adr r3, 8003a10 <SysTick_OS_Tick+0x40>)
 80039e4:	e9d3 2300 	ldrd	r2, r3, [r3]
 80039e8:	f005 fcb4 	bl	8009354 <__aeabi_dmul>
 80039ec:	2300      	movs	r3, #0
 80039ee:	f6c3 73e0 	movt	r3, #16352	; 0x3fe0
 80039f2:	2200      	movs	r2, #0
 80039f4:	f005 fafc 	bl	8008ff0 <__adddf3>
 80039f8:	f005 ff6e 	bl	80098d8 <__aeabi_d2uiz>
 80039fc:	2300      	movs	r3, #0
 80039fe:	6060      	str	r0, [r4, #4]
 8003a00:	60a3      	str	r3, [r4, #8]
 8003a02:	6823      	ldr	r3, [r4, #0]
 8003a04:	f043 0301 	orr.w	r3, r3, #1
 8003a08:	6023      	str	r3, [r4, #0]
 8003a0a:	bd10      	pop	{r4, pc}
 8003a0c:	f3af 8000 	nop.w
 8003a10:	00000000 	andeq	r0, r0, r0
 8003a14:	40c19400 	sbcmi	r9, r1, r0, lsl #8

08003a18 <TIM2_Stopwatch_Start>:
 8003a18:	b430      	push	{r4, r5}
 8003a1a:	f44f 5280 	mov.w	r2, #4096	; 0x1000
 8003a1e:	f2c4 0202 	movt	r2, #16386	; 0x4002
 8003a22:	69d5      	ldr	r5, [r2, #28]
 8003a24:	f04f 4380 	mov.w	r3, #1073741824	; 0x40000000
 8003a28:	f045 0501 	orr.w	r5, r5, #1
 8003a2c:	2418      	movs	r4, #24
 8003a2e:	f240 509f 	movw	r0, #1439	; 0x59f
 8003a32:	f64f 71ff 	movw	r1, #65535	; 0xffff
 8003a36:	61d5      	str	r5, [r2, #28]
 8003a38:	801c      	strh	r4, [r3, #0]
 8003a3a:	8518      	strh	r0, [r3, #40]	; 0x28
 8003a3c:	8599      	strh	r1, [r3, #44]	; 0x2c
 8003a3e:	8a9a      	ldrh	r2, [r3, #20]
 8003a40:	b292      	uxth	r2, r2
 8003a42:	f042 0201 	orr.w	r2, r2, #1
 8003a46:	829a      	strh	r2, [r3, #20]
 8003a48:	881a      	ldrh	r2, [r3, #0]
 8003a4a:	b292      	uxth	r2, r2
 8003a4c:	f042 0201 	orr.w	r2, r2, #1
 8003a50:	801a      	strh	r2, [r3, #0]
 8003a52:	bc30      	pop	{r4, r5}
 8003a54:	4770      	bx	lr
 8003a56:	bf00      	nop

08003a58 <TIM2_Stopwatch_Stop>:
 8003a58:	f04f 4280 	mov.w	r2, #1073741824	; 0x40000000
 8003a5c:	8813      	ldrh	r3, [r2, #0]
 8003a5e:	f64f 71ec 	movw	r1, #65516	; 0xffec
 8003a62:	f023 0301 	bic.w	r3, r3, #1
 8003a66:	041b      	lsls	r3, r3, #16
 8003a68:	0c1b      	lsrs	r3, r3, #16
 8003a6a:	8013      	strh	r3, [r2, #0]
 8003a6c:	8c93      	ldrh	r3, [r2, #36]	; 0x24
 8003a6e:	f2c0 0113 	movt	r1, #19
 8003a72:	b29b      	uxth	r3, r3
 8003a74:	f06f 0013 	mvn.w	r0, #19
 8003a78:	fb00 1003 	mla	r0, r0, r3, r1
 8003a7c:	4770      	bx	lr
 8003a7e:	bf00      	nop

08003a80 <TIM2_Delay>:
 8003a80:	b470      	push	{r4, r5, r6}
 8003a82:	f44f 5380 	mov.w	r3, #4096	; 0x1000
 8003a86:	f2c4 0302 	movt	r3, #16386	; 0x4002
 8003a8a:	69de      	ldr	r6, [r3, #28]
 8003a8c:	f04f 4280 	mov.w	r2, #1073741824	; 0x40000000
 8003a90:	2418      	movs	r4, #24
 8003a92:	f64f 71ff 	movw	r1, #65535	; 0xffff
 8003a96:	f046 0601 	orr.w	r6, r6, #1
 8003a9a:	f240 559f 	movw	r5, #1439	; 0x59f
 8003a9e:	61de      	str	r6, [r3, #28]
 8003aa0:	8515      	strh	r5, [r2, #40]	; 0x28
 8003aa2:	8014      	strh	r4, [r2, #0]
 8003aa4:	8591      	strh	r1, [r2, #44]	; 0x2c
 8003aa6:	2132      	movs	r1, #50	; 0x32
 8003aa8:	8a93      	ldrh	r3, [r2, #20]
 8003aaa:	fb01 f000 	mul.w	r0, r1, r0
 8003aae:	b29b      	uxth	r3, r3
 8003ab0:	f248 0401 	movw	r4, #32769	; 0x8001
 8003ab4:	f043 0301 	orr.w	r3, r3, #1
 8003ab8:	f2c8 0400 	movt	r4, #32768	; 0x8000
 8003abc:	8293      	strh	r3, [r2, #20]
 8003abe:	fba4 1400 	umull	r1, r4, r4, r0
 8003ac2:	8993      	ldrh	r3, [r2, #12]
 8003ac4:	0be4      	lsrs	r4, r4, #15
 8003ac6:	b29b      	uxth	r3, r3
 8003ac8:	f043 0301 	orr.w	r3, r3, #1
 8003acc:	8193      	strh	r3, [r2, #12]
 8003ace:	bf18      	it	ne
 8003ad0:	2100      	movne	r1, #0
 8003ad2:	d015      	beq.n	8003b00 <TIM2_Delay+0x80>
 8003ad4:	8a93      	ldrh	r3, [r2, #20]
 8003ad6:	b29b      	uxth	r3, r3
 8003ad8:	f043 0301 	orr.w	r3, r3, #1
 8003adc:	8293      	strh	r3, [r2, #20]
 8003ade:	8a13      	ldrh	r3, [r2, #16]
 8003ae0:	f023 0301 	bic.w	r3, r3, #1
 8003ae4:	041b      	lsls	r3, r3, #16
 8003ae6:	0c1b      	lsrs	r3, r3, #16
 8003ae8:	8213      	strh	r3, [r2, #16]
 8003aea:	8813      	ldrh	r3, [r2, #0]
 8003aec:	b29b      	uxth	r3, r3
 8003aee:	f043 0301 	orr.w	r3, r3, #1
 8003af2:	8013      	strh	r3, [r2, #0]
 8003af4:	8a13      	ldrh	r3, [r2, #16]
 8003af6:	07dd      	lsls	r5, r3, #31
 8003af8:	d5fc      	bpl.n	8003af4 <TIM2_Delay+0x74>
 8003afa:	3101      	adds	r1, #1
 8003afc:	42a1      	cmp	r1, r4
 8003afe:	d1e9      	bne.n	8003ad4 <TIM2_Delay+0x54>
 8003b00:	f248 0301 	movw	r3, #32769	; 0x8001
 8003b04:	f2c8 0300 	movt	r3, #32768	; 0x8000
 8003b08:	fba3 2300 	umull	r2, r3, r3, r0
 8003b0c:	0bdb      	lsrs	r3, r3, #15
 8003b0e:	ebc3 4303 	rsb	r3, r3, r3, lsl #16
 8003b12:	1ac2      	subs	r2, r0, r3
 8003b14:	b292      	uxth	r2, r2
 8003b16:	f04f 4380 	mov.w	r3, #1073741824	; 0x40000000
 8003b1a:	859a      	strh	r2, [r3, #44]	; 0x2c
 8003b1c:	8a9a      	ldrh	r2, [r3, #20]
 8003b1e:	4619      	mov	r1, r3
 8003b20:	b292      	uxth	r2, r2
 8003b22:	f042 0201 	orr.w	r2, r2, #1
 8003b26:	829a      	strh	r2, [r3, #20]
 8003b28:	8a1a      	ldrh	r2, [r3, #16]
 8003b2a:	f022 0201 	bic.w	r2, r2, #1
 8003b2e:	0412      	lsls	r2, r2, #16
 8003b30:	0c12      	lsrs	r2, r2, #16
 8003b32:	821a      	strh	r2, [r3, #16]
 8003b34:	881a      	ldrh	r2, [r3, #0]
 8003b36:	b292      	uxth	r2, r2
 8003b38:	f042 0201 	orr.w	r2, r2, #1
 8003b3c:	801a      	strh	r2, [r3, #0]
 8003b3e:	8a0b      	ldrh	r3, [r1, #16]
 8003b40:	f04f 4280 	mov.w	r2, #1073741824	; 0x40000000
 8003b44:	07db      	lsls	r3, r3, #31
 8003b46:	d5fa      	bpl.n	8003b3e <TIM2_Delay+0xbe>
 8003b48:	8813      	ldrh	r3, [r2, #0]
 8003b4a:	f023 0301 	bic.w	r3, r3, #1
 8003b4e:	041b      	lsls	r3, r3, #16
 8003b50:	0c1b      	lsrs	r3, r3, #16
 8003b52:	8013      	strh	r3, [r2, #0]
 8003b54:	8993      	ldrh	r3, [r2, #12]
 8003b56:	f023 0301 	bic.w	r3, r3, #1
 8003b5a:	041b      	lsls	r3, r3, #16
 8003b5c:	0c1b      	lsrs	r3, r3, #16
 8003b5e:	8193      	strh	r3, [r2, #12]
 8003b60:	bc70      	pop	{r4, r5, r6}
 8003b62:	4770      	bx	lr

08003b64 <TIM4_Repeat>:
 8003b64:	b430      	push	{r4, r5}
 8003b66:	eb00 0080 	add.w	r0, r0, r0, lsl #2
 8003b6a:	f44f 5280 	mov.w	r2, #4096	; 0x1000
 8003b6e:	f2c4 0202 	movt	r2, #16386	; 0x4002
 8003b72:	eb00 0080 	add.w	r0, r0, r0, lsl #2
 8003b76:	69d5      	ldr	r5, [r2, #28]
 8003b78:	0040      	lsls	r0, r0, #1
 8003b7a:	3801      	subs	r0, #1
 8003b7c:	f44f 6300 	mov.w	r3, #2048	; 0x800
 8003b80:	f2c4 0300 	movt	r3, #16384	; 0x4000
 8003b84:	2410      	movs	r4, #16
 8003b86:	f045 0504 	orr.w	r5, r5, #4
 8003b8a:	b280      	uxth	r0, r0
 8003b8c:	f240 519f 	movw	r1, #1439	; 0x59f
 8003b90:	61d5      	str	r5, [r2, #28]
 8003b92:	801c      	strh	r4, [r3, #0]
 8003b94:	8519      	strh	r1, [r3, #40]	; 0x28
 8003b96:	8598      	strh	r0, [r3, #44]	; 0x2c
 8003b98:	8a9a      	ldrh	r2, [r3, #20]
 8003b9a:	b292      	uxth	r2, r2
 8003b9c:	f042 0201 	orr.w	r2, r2, #1
 8003ba0:	829a      	strh	r2, [r3, #20]
 8003ba2:	8a1a      	ldrh	r2, [r3, #16]
 8003ba4:	f022 0201 	bic.w	r2, r2, #1
 8003ba8:	40a2      	lsls	r2, r4
 8003baa:	40e2      	lsrs	r2, r4
 8003bac:	821a      	strh	r2, [r3, #16]
 8003bae:	899a      	ldrh	r2, [r3, #12]
 8003bb0:	b292      	uxth	r2, r2
 8003bb2:	f042 0201 	orr.w	r2, r2, #1
 8003bb6:	819a      	strh	r2, [r3, #12]
 8003bb8:	881a      	ldrh	r2, [r3, #0]
 8003bba:	b292      	uxth	r2, r2
 8003bbc:	f042 0201 	orr.w	r2, r2, #1
 8003bc0:	801a      	strh	r2, [r3, #0]
 8003bc2:	bc30      	pop	{r4, r5}
 8003bc4:	4770      	bx	lr
 8003bc6:	bf00      	nop

08003bc8 <TIM4_Check_Timeout>:
 8003bc8:	f44f 6300 	mov.w	r3, #2048	; 0x800
 8003bcc:	f2c4 0300 	movt	r3, #16384	; 0x4000
 8003bd0:	8a18      	ldrh	r0, [r3, #16]
 8003bd2:	f010 0001 	ands.w	r0, r0, #1
 8003bd6:	d006      	beq.n	8003be6 <TIM4_Check_Timeout+0x1e>
 8003bd8:	8a1a      	ldrh	r2, [r3, #16]
 8003bda:	2001      	movs	r0, #1
 8003bdc:	f022 0201 	bic.w	r2, r2, #1
 8003be0:	0412      	lsls	r2, r2, #16
 8003be2:	0c12      	lsrs	r2, r2, #16
 8003be4:	821a      	strh	r2, [r3, #16]
 8003be6:	4770      	bx	lr

08003be8 <TIM4_Stop>:
 8003be8:	f44f 6300 	mov.w	r3, #2048	; 0x800
 8003bec:	f2c4 0300 	movt	r3, #16384	; 0x4000
 8003bf0:	881a      	ldrh	r2, [r3, #0]
 8003bf2:	f022 0201 	bic.w	r2, r2, #1
 8003bf6:	0412      	lsls	r2, r2, #16
 8003bf8:	0c12      	lsrs	r2, r2, #16
 8003bfa:	801a      	strh	r2, [r3, #0]
 8003bfc:	899a      	ldrh	r2, [r3, #12]
 8003bfe:	f022 0201 	bic.w	r2, r2, #1
 8003c02:	0412      	lsls	r2, r2, #16
 8003c04:	0c12      	lsrs	r2, r2, #16
 8003c06:	819a      	strh	r2, [r3, #12]
 8003c08:	4770      	bx	lr
 8003c0a:	bf00      	nop

08003c0c <TIM4_Change_Value>:
 8003c0c:	eb00 0080 	add.w	r0, r0, r0, lsl #2
 8003c10:	eb00 0080 	add.w	r0, r0, r0, lsl #2
 8003c14:	0040      	lsls	r0, r0, #1
 8003c16:	f44f 6300 	mov.w	r3, #2048	; 0x800
 8003c1a:	b280      	uxth	r0, r0
 8003c1c:	f2c4 0300 	movt	r3, #16384	; 0x4000
 8003c20:	8598      	strh	r0, [r3, #44]	; 0x2c
 8003c22:	4770      	bx	lr

08003c24 <TIM3_Out_Init>:
 8003c24:	f44f 5380 	mov.w	r3, #4096	; 0x1000
 8003c28:	f2c4 0302 	movt	r3, #16386	; 0x4002
 8003c2c:	69da      	ldr	r2, [r3, #28]
 8003c2e:	f44f 6140 	mov.w	r1, #3072	; 0xc00
 8003c32:	f042 0202 	orr.w	r2, r2, #2
 8003c36:	61da      	str	r2, [r3, #28]
 8003c38:	699a      	ldr	r2, [r3, #24]
 8003c3a:	f2c4 0101 	movt	r1, #16385	; 0x4001
 8003c3e:	f042 0208 	orr.w	r2, r2, #8
 8003c42:	619a      	str	r2, [r3, #24]
 8003c44:	680b      	ldr	r3, [r1, #0]
 8003c46:	f44f 6280 	mov.w	r2, #1024	; 0x400
 8003c4a:	f023 030f 	bic.w	r3, r3, #15
 8003c4e:	f043 030b 	orr.w	r3, r3, #11
 8003c52:	600b      	str	r3, [r1, #0]
 8003c54:	f2c4 0200 	movt	r2, #16384	; 0x4000
 8003c58:	8b93      	ldrh	r3, [r2, #28]
 8003c5a:	f44f 7180 	mov.w	r1, #256	; 0x100
 8003c5e:	f023 0370 	bic.w	r3, r3, #112	; 0x70
 8003c62:	041b      	lsls	r3, r3, #16
 8003c64:	0c1b      	lsrs	r3, r3, #16
 8003c66:	f043 0360 	orr.w	r3, r3, #96	; 0x60
 8003c6a:	8393      	strh	r3, [r2, #28]
 8003c6c:	8411      	strh	r1, [r2, #32]
 8003c6e:	4770      	bx	lr

08003c70 <TIM3_Out_Freq_Generation>:
 8003c70:	b510      	push	{r4, lr}
 8003c72:	f44f 6480 	mov.w	r4, #1024	; 0x400
 8003c76:	f2c4 0400 	movt	r4, #16384	; 0x4000
 8003c7a:	2308      	movs	r3, #8
 8003c7c:	8523      	strh	r3, [r4, #40]	; 0x28
 8003c7e:	f005 fb03 	bl	8009288 <__aeabi_i2d>
 8003c82:	4602      	mov	r2, r0
 8003c84:	460b      	mov	r3, r1
 8003c86:	a10e      	add	r1, pc, #56	; (adr r1, 8003cc0 <TIM3_Out_Freq_Generation+0x50>)
 8003c88:	e9d1 0100 	ldrd	r0, r1, [r1]
 8003c8c:	f005 fc8c 	bl	80095a8 <__aeabi_ddiv>
 8003c90:	2300      	movs	r3, #0
 8003c92:	2200      	movs	r2, #0
 8003c94:	f6c3 73f0 	movt	r3, #16368	; 0x3ff0
 8003c98:	f005 f9a8 	bl	8008fec <__aeabi_dsub>
 8003c9c:	f005 fe1c 	bl	80098d8 <__aeabi_d2uiz>
 8003ca0:	b280      	uxth	r0, r0
 8003ca2:	85a0      	strh	r0, [r4, #44]	; 0x2c
 8003ca4:	8da2      	ldrh	r2, [r4, #44]	; 0x2c
 8003ca6:	2311      	movs	r3, #17
 8003ca8:	f3c2 024e 	ubfx	r2, r2, #1, #15
 8003cac:	87a2      	strh	r2, [r4, #60]	; 0x3c
 8003cae:	8aa2      	ldrh	r2, [r4, #20]
 8003cb0:	b292      	uxth	r2, r2
 8003cb2:	f042 0201 	orr.w	r2, r2, #1
 8003cb6:	82a2      	strh	r2, [r4, #20]
 8003cb8:	8023      	strh	r3, [r4, #0]
 8003cba:	bd10      	pop	{r4, pc}
 8003cbc:	f3af 8000 	nop.w
 8003cc0:	00000000 	andeq	r0, r0, r0
 8003cc4:	415e8480 	cmpmi	lr, r0, lsl #9

08003cc8 <TIM3_Out_Stop>:
 8003cc8:	f44f 6380 	mov.w	r3, #1024	; 0x400
 8003ccc:	f2c4 0300 	movt	r3, #16384	; 0x4000
 8003cd0:	881a      	ldrh	r2, [r3, #0]
 8003cd2:	f022 0201 	bic.w	r2, r2, #1
 8003cd6:	0412      	lsls	r2, r2, #16
 8003cd8:	0c12      	lsrs	r2, r2, #16
 8003cda:	801a      	strh	r2, [r3, #0]
 8003cdc:	899a      	ldrh	r2, [r3, #12]
 8003cde:	f022 0201 	bic.w	r2, r2, #1
 8003ce2:	0412      	lsls	r2, r2, #16
 8003ce4:	0c12      	lsrs	r2, r2, #16
 8003ce6:	819a      	strh	r2, [r3, #12]
 8003ce8:	4770      	bx	lr
 8003cea:	bf00      	nop
 8003cec:	f3af 8000 	nop.w

08003cf0 <Uart1_Init>:
 8003cf0:	b570      	push	{r4, r5, r6, lr}
 8003cf2:	f44f 5280 	mov.w	r2, #4096	; 0x1000
 8003cf6:	f2c4 0202 	movt	r2, #16386	; 0x4002
 8003cfa:	6991      	ldr	r1, [r2, #24]
 8003cfc:	f44f 6300 	mov.w	r3, #2048	; 0x800
 8003d00:	f041 0104 	orr.w	r1, r1, #4
 8003d04:	6191      	str	r1, [r2, #24]
 8003d06:	6991      	ldr	r1, [r2, #24]
 8003d08:	f2c4 0301 	movt	r3, #16385	; 0x4001
 8003d0c:	f441 4180 	orr.w	r1, r1, #16384	; 0x4000
 8003d10:	6191      	str	r1, [r2, #24]
 8003d12:	685a      	ldr	r2, [r3, #4]
 8003d14:	f422 627f 	bic.w	r2, r2, #4080	; 0xff0
 8003d18:	f442 620a 	orr.w	r2, r2, #2208	; 0x8a0
 8003d1c:	605a      	str	r2, [r3, #4]
 8003d1e:	68da      	ldr	r2, [r3, #12]
 8003d20:	f442 6280 	orr.w	r2, r2, #1024	; 0x400
 8003d24:	60da      	str	r2, [r3, #12]
 8003d26:	f005 faaf 	bl	8009288 <__aeabi_i2d>
 8003d2a:	2300      	movs	r3, #0
 8003d2c:	2200      	movs	r2, #0
 8003d2e:	f2c4 0330 	movt	r3, #16432	; 0x4030
 8003d32:	f005 fb0f 	bl	8009354 <__aeabi_dmul>
 8003d36:	4602      	mov	r2, r0
 8003d38:	460b      	mov	r3, r1
 8003d3a:	a119      	add	r1, pc, #100	; (adr r1, 8003da0 <Uart1_Init+0xb0>)
 8003d3c:	e9d1 0100 	ldrd	r0, r1, [r1]
 8003d40:	f005 fc32 	bl	80095a8 <__aeabi_ddiv>
 8003d44:	460d      	mov	r5, r1
 8003d46:	4604      	mov	r4, r0
 8003d48:	f005 fd9e 	bl	8009888 <__aeabi_d2iz>
 8003d4c:	4606      	mov	r6, r0
 8003d4e:	f005 fa8b 	bl	8009268 <__aeabi_ui2d>
 8003d52:	4602      	mov	r2, r0
 8003d54:	460b      	mov	r3, r1
 8003d56:	4620      	mov	r0, r4
 8003d58:	4629      	mov	r1, r5
 8003d5a:	f005 f947 	bl	8008fec <__aeabi_dsub>
 8003d5e:	2300      	movs	r3, #0
 8003d60:	2200      	movs	r2, #0
 8003d62:	f2c4 0330 	movt	r3, #16432	; 0x4030
 8003d66:	f005 faf5 	bl	8009354 <__aeabi_dmul>
 8003d6a:	2300      	movs	r3, #0
 8003d6c:	2200      	movs	r2, #0
 8003d6e:	f6c3 73e0 	movt	r3, #16352	; 0x3fe0
 8003d72:	f005 f93d 	bl	8008ff0 <__adddf3>
 8003d76:	f005 fd87 	bl	8009888 <__aeabi_d2iz>
 8003d7a:	eb06 1610 	add.w	r6, r6, r0, lsr #4
 8003d7e:	f000 000f 	and.w	r0, r0, #15
 8003d82:	eb00 1006 	add.w	r0, r0, r6, lsl #4
 8003d86:	f44f 5360 	mov.w	r3, #14336	; 0x3800
 8003d8a:	f2c4 0301 	movt	r3, #16385	; 0x4001
 8003d8e:	2200      	movs	r2, #0
 8003d90:	b280      	uxth	r0, r0
 8003d92:	f242 010c 	movw	r1, #8204	; 0x200c
 8003d96:	8118      	strh	r0, [r3, #8]
 8003d98:	8199      	strh	r1, [r3, #12]
 8003d9a:	821a      	strh	r2, [r3, #16]
 8003d9c:	829a      	strh	r2, [r3, #20]
 8003d9e:	bd70      	pop	{r4, r5, r6, pc}
 8003da0:	00000000 	andeq	r0, r0, r0
 8003da4:	41912a88 	orrsmi	r2, r1, r8, lsl #21

08003da8 <Uart1_Send_Byte>:
 8003da8:	280a      	cmp	r0, #10
 8003daa:	d00c      	beq.n	8003dc6 <Uart1_Send_Byte+0x1e>
 8003dac:	f44f 5160 	mov.w	r1, #14336	; 0x3800
 8003db0:	f2c4 0101 	movt	r1, #16385	; 0x4001
 8003db4:	880a      	ldrh	r2, [r1, #0]
 8003db6:	f44f 5360 	mov.w	r3, #14336	; 0x3800
 8003dba:	0612      	lsls	r2, r2, #24
 8003dbc:	f2c4 0301 	movt	r3, #16385	; 0x4001
 8003dc0:	d5f8      	bpl.n	8003db4 <Uart1_Send_Byte+0xc>
 8003dc2:	8098      	strh	r0, [r3, #4]
 8003dc4:	4770      	bx	lr
 8003dc6:	f44f 5160 	mov.w	r1, #14336	; 0x3800
 8003dca:	f2c4 0101 	movt	r1, #16385	; 0x4001
 8003dce:	880a      	ldrh	r2, [r1, #0]
 8003dd0:	f44f 5360 	mov.w	r3, #14336	; 0x3800
 8003dd4:	0612      	lsls	r2, r2, #24
 8003dd6:	f2c4 0301 	movt	r3, #16385	; 0x4001
 8003dda:	d5f8      	bpl.n	8003dce <Uart1_Send_Byte+0x26>
 8003ddc:	220d      	movs	r2, #13
 8003dde:	809a      	strh	r2, [r3, #4]
 8003de0:	e7e4      	b.n	8003dac <Uart1_Send_Byte+0x4>
 8003de2:	bf00      	nop

08003de4 <Uart1_Send_String>:
 8003de4:	b430      	push	{r4, r5}
 8003de6:	7804      	ldrb	r4, [r0, #0]
 8003de8:	b194      	cbz	r4, 8003e10 <Uart1_Send_String+0x2c>
 8003dea:	f44f 5160 	mov.w	r1, #14336	; 0x3800
 8003dee:	f2c4 0101 	movt	r1, #16385	; 0x4001
 8003df2:	250d      	movs	r5, #13
 8003df4:	2c0a      	cmp	r4, #10
 8003df6:	d00d      	beq.n	8003e14 <Uart1_Send_String+0x30>
 8003df8:	880a      	ldrh	r2, [r1, #0]
 8003dfa:	f44f 5360 	mov.w	r3, #14336	; 0x3800
 8003dfe:	0612      	lsls	r2, r2, #24
 8003e00:	f2c4 0301 	movt	r3, #16385	; 0x4001
 8003e04:	d5f8      	bpl.n	8003df8 <Uart1_Send_String+0x14>
 8003e06:	809c      	strh	r4, [r3, #4]
 8003e08:	f810 4f01 	ldrb.w	r4, [r0, #1]!
 8003e0c:	2c00      	cmp	r4, #0
 8003e0e:	d1f1      	bne.n	8003df4 <Uart1_Send_String+0x10>
 8003e10:	bc30      	pop	{r4, r5}
 8003e12:	4770      	bx	lr
 8003e14:	880a      	ldrh	r2, [r1, #0]
 8003e16:	f44f 5360 	mov.w	r3, #14336	; 0x3800
 8003e1a:	0612      	lsls	r2, r2, #24
 8003e1c:	f2c4 0301 	movt	r3, #16385	; 0x4001
 8003e20:	d5f8      	bpl.n	8003e14 <Uart1_Send_String+0x30>
 8003e22:	809d      	strh	r5, [r3, #4]
 8003e24:	e7e8      	b.n	8003df8 <Uart1_Send_String+0x14>
 8003e26:	bf00      	nop

08003e28 <Uart1_Printf>:
 8003e28:	b40f      	push	{r0, r1, r2, r3}
 8003e2a:	b530      	push	{r4, r5, lr}
 8003e2c:	b0c3      	sub	sp, #268	; 0x10c
 8003e2e:	ab46      	add	r3, sp, #280	; 0x118
 8003e30:	f853 1b04 	ldr.w	r1, [r3], #4
 8003e34:	a802      	add	r0, sp, #8
 8003e36:	461a      	mov	r2, r3
 8003e38:	9301      	str	r3, [sp, #4]
 8003e3a:	f000 f87b 	bl	8003f34 <vsprintf>
 8003e3e:	f89d 0008 	ldrb.w	r0, [sp, #8]
 8003e42:	b198      	cbz	r0, 8003e6c <Uart1_Printf+0x44>
 8003e44:	f44f 5160 	mov.w	r1, #14336	; 0x3800
 8003e48:	ac02      	add	r4, sp, #8
 8003e4a:	f2c4 0101 	movt	r1, #16385	; 0x4001
 8003e4e:	250d      	movs	r5, #13
 8003e50:	280a      	cmp	r0, #10
 8003e52:	d010      	beq.n	8003e76 <Uart1_Printf+0x4e>
 8003e54:	880a      	ldrh	r2, [r1, #0]
 8003e56:	f44f 5360 	mov.w	r3, #14336	; 0x3800
 8003e5a:	0612      	lsls	r2, r2, #24
 8003e5c:	f2c4 0301 	movt	r3, #16385	; 0x4001
 8003e60:	d5f8      	bpl.n	8003e54 <Uart1_Printf+0x2c>
 8003e62:	8098      	strh	r0, [r3, #4]
 8003e64:	f814 0f01 	ldrb.w	r0, [r4, #1]!
 8003e68:	2800      	cmp	r0, #0
 8003e6a:	d1f1      	bne.n	8003e50 <Uart1_Printf+0x28>
 8003e6c:	b043      	add	sp, #268	; 0x10c
 8003e6e:	e8bd 4030 	ldmia.w	sp!, {r4, r5, lr}
 8003e72:	b004      	add	sp, #16
 8003e74:	4770      	bx	lr
 8003e76:	880a      	ldrh	r2, [r1, #0]
 8003e78:	f44f 5360 	mov.w	r3, #14336	; 0x3800
 8003e7c:	0612      	lsls	r2, r2, #24
 8003e7e:	f2c4 0301 	movt	r3, #16385	; 0x4001
 8003e82:	d5f8      	bpl.n	8003e76 <Uart1_Printf+0x4e>
 8003e84:	809d      	strh	r5, [r3, #4]
 8003e86:	e7e5      	b.n	8003e54 <Uart1_Printf+0x2c>

08003e88 <Uart1_Get_Pressed>:
 8003e88:	f44f 5360 	mov.w	r3, #14336	; 0x3800
 8003e8c:	f2c4 0301 	movt	r3, #16385	; 0x4001
 8003e90:	8818      	ldrh	r0, [r3, #0]
 8003e92:	f3c0 1040 	ubfx	r0, r0, #5, #1
 8003e96:	b108      	cbz	r0, 8003e9c <Uart1_Get_Pressed+0x14>
 8003e98:	8898      	ldrh	r0, [r3, #4]
 8003e9a:	b2c0      	uxtb	r0, r0
 8003e9c:	4770      	bx	lr
 8003e9e:	bf00      	nop

08003ea0 <Uart1_Get_Char>:
 8003ea0:	f44f 5260 	mov.w	r2, #14336	; 0x3800
 8003ea4:	f2c4 0201 	movt	r2, #16385	; 0x4001
 8003ea8:	8813      	ldrh	r3, [r2, #0]
 8003eaa:	0699      	lsls	r1, r3, #26
 8003eac:	d5fc      	bpl.n	8003ea8 <Uart1_Get_Char+0x8>
 8003eae:	8890      	ldrh	r0, [r2, #4]
 8003eb0:	b2c0      	uxtb	r0, r0
 8003eb2:	2800      	cmp	r0, #0
 8003eb4:	d0f8      	beq.n	8003ea8 <Uart1_Get_Char+0x8>
 8003eb6:	4770      	bx	lr

08003eb8 <Uart1_RX_Interrupt_Enable>:
 8003eb8:	b980      	cbnz	r0, 8003edc <Uart1_RX_Interrupt_Enable+0x24>
 8003eba:	f44f 5380 	mov.w	r3, #4096	; 0x1000
 8003ebe:	f2c4 0302 	movt	r3, #16386	; 0x4002
 8003ec2:	6998      	ldr	r0, [r3, #24]
 8003ec4:	f44f 4261 	mov.w	r2, #57600	; 0xe100
 8003ec8:	f420 4080 	bic.w	r0, r0, #16384	; 0x4000
 8003ecc:	f2ce 0200 	movt	r2, #57344	; 0xe000
 8003ed0:	f44f 0100 	mov.w	r1, #8388608	; 0x800000
 8003ed4:	6198      	str	r0, [r3, #24]
 8003ed6:	f8c2 1180 	str.w	r1, [r2, #384]	; 0x180
 8003eda:	4770      	bx	lr
 8003edc:	f44f 5260 	mov.w	r2, #14336	; 0x3800
 8003ee0:	f2c4 0201 	movt	r2, #16385	; 0x4001
 8003ee4:	8990      	ldrh	r0, [r2, #12]
 8003ee6:	f44f 4361 	mov.w	r3, #57600	; 0xe100
 8003eea:	b280      	uxth	r0, r0
 8003eec:	f2ce 0300 	movt	r3, #57344	; 0xe000
 8003ef0:	2120      	movs	r1, #32
 8003ef2:	f040 0020 	orr.w	r0, r0, #32
 8003ef6:	8190      	strh	r0, [r2, #12]
 8003ef8:	f8c3 1184 	str.w	r1, [r3, #388]	; 0x184
 8003efc:	6059      	str	r1, [r3, #4]
 8003efe:	4770      	bx	lr

08003f00 <_vsprintf_r>:
 8003f00:	b530      	push	{r4, r5, lr}
 8003f02:	b09b      	sub	sp, #108	; 0x6c
 8003f04:	460c      	mov	r4, r1
 8003f06:	4669      	mov	r1, sp
 8003f08:	9400      	str	r4, [sp, #0]
 8003f0a:	f44f 7502 	mov.w	r5, #520	; 0x208
 8003f0e:	9404      	str	r4, [sp, #16]
 8003f10:	f06f 4400 	mvn.w	r4, #2147483648	; 0x80000000
 8003f14:	f8ad 500c 	strh.w	r5, [sp, #12]
 8003f18:	f64f 75ff 	movw	r5, #65535	; 0xffff
 8003f1c:	9402      	str	r4, [sp, #8]
 8003f1e:	9405      	str	r4, [sp, #20]
 8003f20:	f8ad 500e 	strh.w	r5, [sp, #14]
 8003f24:	f000 f814 	bl	8003f50 <_svfprintf_r>
 8003f28:	9b00      	ldr	r3, [sp, #0]
 8003f2a:	2200      	movs	r2, #0
 8003f2c:	701a      	strb	r2, [r3, #0]
 8003f2e:	b01b      	add	sp, #108	; 0x6c
 8003f30:	bd30      	pop	{r4, r5, pc}
 8003f32:	bf00      	nop

08003f34 <vsprintf>:
 8003f34:	b430      	push	{r4, r5}
 8003f36:	f240 0400 	movw	r4, #0
 8003f3a:	f2c2 0400 	movt	r4, #8192	; 0x2000
 8003f3e:	460d      	mov	r5, r1
 8003f40:	4613      	mov	r3, r2
 8003f42:	4601      	mov	r1, r0
 8003f44:	462a      	mov	r2, r5
 8003f46:	6820      	ldr	r0, [r4, #0]
 8003f48:	bc30      	pop	{r4, r5}
 8003f4a:	f7ff bfd9 	b.w	8003f00 <_vsprintf_r>
 8003f4e:	bf00      	nop

08003f50 <_svfprintf_r>:
 8003f50:	e92d 4ff0 	stmdb	sp!, {r4, r5, r6, r7, r8, r9, sl, fp, lr}
 8003f54:	b0c9      	sub	sp, #292	; 0x124
 8003f56:	4691      	mov	r9, r2
 8003f58:	9314      	str	r3, [sp, #80]	; 0x50
 8003f5a:	910b      	str	r1, [sp, #44]	; 0x2c
 8003f5c:	900e      	str	r0, [sp, #56]	; 0x38
 8003f5e:	f002 fafb 	bl	8006558 <_localeconv_r>
 8003f62:	6800      	ldr	r0, [r0, #0]
 8003f64:	901a      	str	r0, [sp, #104]	; 0x68
 8003f66:	f003 fc67 	bl	8007838 <strlen>
 8003f6a:	9c0b      	ldr	r4, [sp, #44]	; 0x2c
 8003f6c:	89a3      	ldrh	r3, [r4, #12]
 8003f6e:	901d      	str	r0, [sp, #116]	; 0x74
 8003f70:	0618      	lsls	r0, r3, #24
 8003f72:	d503      	bpl.n	8003f7c <_svfprintf_r+0x2c>
 8003f74:	6923      	ldr	r3, [r4, #16]
 8003f76:	2b00      	cmp	r3, #0
 8003f78:	f001 8079 	beq.w	800506e <_svfprintf_r+0x111e>
 8003f7c:	f24a 0524 	movw	r5, #40996	; 0xa024
 8003f80:	ac38      	add	r4, sp, #224	; 0xe0
 8003f82:	f6c0 0500 	movt	r5, #2048	; 0x800
 8003f86:	9515      	str	r5, [sp, #84]	; 0x54
 8003f88:	f10d 05df 	add.w	r5, sp, #223	; 0xdf
 8003f8c:	9508      	str	r5, [sp, #32]
 8003f8e:	9d15      	ldr	r5, [sp, #84]	; 0x54
 8003f90:	af38      	add	r7, sp, #224	; 0xe0
 8003f92:	9409      	str	r4, [sp, #36]	; 0x24
 8003f94:	f24a 445c 	movw	r4, #42076	; 0xa45c
 8003f98:	f105 0610 	add.w	r6, r5, #16
 8003f9c:	9d08      	ldr	r5, [sp, #32]
 8003f9e:	2300      	movs	r3, #0
 8003fa0:	f6c0 0400 	movt	r4, #2048	; 0x800
 8003fa4:	9311      	str	r3, [sp, #68]	; 0x44
 8003fa6:	9417      	str	r4, [sp, #92]	; 0x5c
 8003fa8:	1b7c      	subs	r4, r7, r5
 8003faa:	931b      	str	r3, [sp, #108]	; 0x6c
 8003fac:	931c      	str	r3, [sp, #112]	; 0x70
 8003fae:	9319      	str	r3, [sp, #100]	; 0x64
 8003fb0:	931e      	str	r3, [sp, #120]	; 0x78
 8003fb2:	9312      	str	r3, [sp, #72]	; 0x48
 8003fb4:	9421      	str	r4, [sp, #132]	; 0x84
 8003fb6:	932d      	str	r3, [sp, #180]	; 0xb4
 8003fb8:	932c      	str	r3, [sp, #176]	; 0xb0
 8003fba:	972b      	str	r7, [sp, #172]	; 0xac
 8003fbc:	f899 3000 	ldrb.w	r3, [r9]
 8003fc0:	2b25      	cmp	r3, #37	; 0x25
 8003fc2:	bf18      	it	ne
 8003fc4:	2b00      	cmpne	r3, #0
 8003fc6:	f000 80b3 	beq.w	8004130 <_svfprintf_r+0x1e0>
 8003fca:	f109 0201 	add.w	r2, r9, #1
 8003fce:	4614      	mov	r4, r2
 8003fd0:	3201      	adds	r2, #1
 8003fd2:	7823      	ldrb	r3, [r4, #0]
 8003fd4:	2b25      	cmp	r3, #37	; 0x25
 8003fd6:	bf18      	it	ne
 8003fd8:	2b00      	cmpne	r3, #0
 8003fda:	d1f8      	bne.n	8003fce <_svfprintf_r+0x7e>
 8003fdc:	ebb4 0509 	subs.w	r5, r4, r9
 8003fe0:	d00f      	beq.n	8004002 <_svfprintf_r+0xb2>
 8003fe2:	9b2c      	ldr	r3, [sp, #176]	; 0xb0
 8003fe4:	9a2d      	ldr	r2, [sp, #180]	; 0xb4
 8003fe6:	3301      	adds	r3, #1
 8003fe8:	f8c7 9000 	str.w	r9, [r7]
 8003fec:	2b07      	cmp	r3, #7
 8003fee:	607d      	str	r5, [r7, #4]
 8003ff0:	442a      	add	r2, r5
 8003ff2:	932c      	str	r3, [sp, #176]	; 0xb0
 8003ff4:	922d      	str	r2, [sp, #180]	; 0xb4
 8003ff6:	bfd8      	it	le
 8003ff8:	3708      	addle	r7, #8
 8003ffa:	dc7f      	bgt.n	80040fc <_svfprintf_r+0x1ac>
 8003ffc:	9812      	ldr	r0, [sp, #72]	; 0x48
 8003ffe:	4428      	add	r0, r5
 8004000:	9012      	str	r0, [sp, #72]	; 0x48
 8004002:	7823      	ldrb	r3, [r4, #0]
 8004004:	2b00      	cmp	r3, #0
 8004006:	f000 8081 	beq.w	800410c <_svfprintf_r+0x1bc>
 800400a:	2300      	movs	r3, #0
 800400c:	f88d 308f 	strb.w	r3, [sp, #143]	; 0x8f
 8004010:	461a      	mov	r2, r3
 8004012:	9313      	str	r3, [sp, #76]	; 0x4c
 8004014:	930a      	str	r3, [sp, #40]	; 0x28
 8004016:	f104 0901 	add.w	r9, r4, #1
 800401a:	7863      	ldrb	r3, [r4, #1]
 800401c:	f04f 34ff 	mov.w	r4, #4294967295
 8004020:	940c      	str	r4, [sp, #48]	; 0x30
 8004022:	f109 0901 	add.w	r9, r9, #1
 8004026:	f1a3 0120 	sub.w	r1, r3, #32
 800402a:	2958      	cmp	r1, #88	; 0x58
 800402c:	f200 840a 	bhi.w	8004844 <_svfprintf_r+0x8f4>
 8004030:	e8df f011 	tbh	[pc, r1, lsl #1]
 8004034:	0408038e 	streq	r0, [r8], #-910	; 0xfffffc72
 8004038:	03950408 	orrseq	r0, r5, #8, 8	; 0x8000000
 800403c:	04080408 	streq	r0, [r8], #-1032	; 0xfffffbf8
 8004040:	04080408 	streq	r0, [r8], #-1032	; 0xfffffbf8
 8004044:	04080408 	streq	r0, [r8], #-1032	; 0xfffffbf8
 8004048:	0348039c 	movteq	r0, #33692	; 0x839c
 800404c:	005d0408 	subseq	r0, sp, r8, lsl #8
 8004050:	04080235 	streq	r0, [r8], #-565	; 0xfffffdcb
 8004054:	03f603ef 	mvnseq	r0, #-1140850685	; 0xbc000003
 8004058:	03f603f6 	mvnseq	r0, #-671088637	; 0xd8000003
 800405c:	03f603f6 	mvnseq	r0, #-671088637	; 0xd8000003
 8004060:	03f603f6 	mvnseq	r0, #-671088637	; 0xd8000003
 8004064:	03f603f6 	mvnseq	r0, #-671088637	; 0xd8000003
 8004068:	04080408 	streq	r0, [r8], #-1032	; 0xfffffbf8
 800406c:	04080408 	streq	r0, [r8], #-1032	; 0xfffffbf8
 8004070:	04080408 	streq	r0, [r8], #-1032	; 0xfffffbf8
 8004074:	04080408 	streq	r0, [r8], #-1032	; 0xfffffbf8
 8004078:	04080408 	streq	r0, [r8], #-1032	; 0xfffffbf8
 800407c:	0290026e 	addseq	r0, r0, #-536870906	; 0xe0000006
 8004080:	02900408 	addseq	r0, r0, #8, 8	; 0x8000000
 8004084:	04080408 	streq	r0, [r8], #-1032	; 0xfffffbf8
 8004088:	04080408 	streq	r0, [r8], #-1032	; 0xfffffbf8
 800408c:	040802cd 	streq	r0, [r8], #-717	; 0xfffffd33
 8004090:	02d40408 	sbcseq	r0, r4, #8, 8	; 0x8000000
 8004094:	04080408 	streq	r0, [r8], #-1032	; 0xfffffbf8
 8004098:	04080408 	streq	r0, [r8], #-1032	; 0xfffffbf8
 800409c:	02550408 	subseq	r0, r5, #8, 8	; 0x8000000
 80040a0:	04080408 	streq	r0, [r8], #-1032	; 0xfffffbf8
 80040a4:	040803bc 	streq	r0, [r8], #-956	; 0xfffffc44
 80040a8:	04080408 	streq	r0, [r8], #-1032	; 0xfffffbf8
 80040ac:	04080408 	streq	r0, [r8], #-1032	; 0xfffffbf8
 80040b0:	04080408 	streq	r0, [r8], #-1032	; 0xfffffbf8
 80040b4:	04080408 	streq	r0, [r8], #-1032	; 0xfffffbf8
 80040b8:	03a80408 			; <UNDEFINED> instruction: 0x03a80408
 80040bc:	029003d7 	addseq	r0, r0, #1543503875	; 0x5c000003
 80040c0:	02900290 	addseq	r0, r0, #144, 4
 80040c4:	03d70387 	bicseq	r0, r7, #469762050	; 0x1c000002
 80040c8:	04080408 	streq	r0, [r8], #-1032	; 0xfffffbf8
 80040cc:	0408034c 	streq	r0, [r8], #-844	; 0xfffffcb4
 80040d0:	0224035e 	eoreq	r0, r4, #2013265921	; 0x78000001
 80040d4:	02f00370 	rscseq	r0, r0, #112, 6	; 0xc0000001
 80040d8:	02f70408 	rscseq	r0, r7, #8, 8	; 0x8000000
 80040dc:	00800408 	addeq	r0, r0, r8, lsl #8
 80040e0:	04080408 	streq	r0, [r8], #-1032	; 0xfffffbf8
 80040e4:	9c130320 	ldcls	3, cr0, [r3], {32}
 80040e8:	9314      	str	r3, [sp, #80]	; 0x50
 80040ea:	4264      	negs	r4, r4
 80040ec:	9413      	str	r4, [sp, #76]	; 0x4c
 80040ee:	9d0a      	ldr	r5, [sp, #40]	; 0x28
 80040f0:	f045 0504 	orr.w	r5, r5, #4
 80040f4:	950a      	str	r5, [sp, #40]	; 0x28
 80040f6:	f899 3000 	ldrb.w	r3, [r9]
 80040fa:	e792      	b.n	8004022 <_svfprintf_r+0xd2>
 80040fc:	980e      	ldr	r0, [sp, #56]	; 0x38
 80040fe:	aa2b      	add	r2, sp, #172	; 0xac
 8004100:	990b      	ldr	r1, [sp, #44]	; 0x2c
 8004102:	f003 fbc9 	bl	8007898 <__ssprint_r>
 8004106:	b940      	cbnz	r0, 800411a <_svfprintf_r+0x1ca>
 8004108:	af38      	add	r7, sp, #224	; 0xe0
 800410a:	e777      	b.n	8003ffc <_svfprintf_r+0xac>
 800410c:	9b2d      	ldr	r3, [sp, #180]	; 0xb4
 800410e:	b123      	cbz	r3, 800411a <_svfprintf_r+0x1ca>
 8004110:	980e      	ldr	r0, [sp, #56]	; 0x38
 8004112:	aa2b      	add	r2, sp, #172	; 0xac
 8004114:	990b      	ldr	r1, [sp, #44]	; 0x2c
 8004116:	f003 fbbf 	bl	8007898 <__ssprint_r>
 800411a:	9c0b      	ldr	r4, [sp, #44]	; 0x2c
 800411c:	9812      	ldr	r0, [sp, #72]	; 0x48
 800411e:	89a3      	ldrh	r3, [r4, #12]
 8004120:	f013 0f40 	tst.w	r3, #64	; 0x40
 8004124:	bf18      	it	ne
 8004126:	f04f 30ff 	movne.w	r0, #4294967295
 800412a:	b049      	add	sp, #292	; 0x124
 800412c:	e8bd 8ff0 	ldmia.w	sp!, {r4, r5, r6, r7, r8, r9, sl, fp, pc}
 8004130:	464c      	mov	r4, r9
 8004132:	e766      	b.n	8004002 <_svfprintf_r+0xb2>
 8004134:	9c0a      	ldr	r4, [sp, #40]	; 0x28
 8004136:	9316      	str	r3, [sp, #88]	; 0x58
 8004138:	06a3      	lsls	r3, r4, #26
 800413a:	f140 81d9 	bpl.w	80044f0 <_svfprintf_r+0x5a0>
 800413e:	9d14      	ldr	r5, [sp, #80]	; 0x50
 8004140:	2301      	movs	r3, #1
 8004142:	1dea      	adds	r2, r5, #7
 8004144:	f022 0207 	bic.w	r2, r2, #7
 8004148:	f102 0408 	add.w	r4, r2, #8
 800414c:	9414      	str	r4, [sp, #80]	; 0x50
 800414e:	e9d2 4500 	ldrd	r4, r5, [r2]
 8004152:	f04f 0a00 	mov.w	sl, #0
 8004156:	f88d a08f 	strb.w	sl, [sp, #143]	; 0x8f
 800415a:	980c      	ldr	r0, [sp, #48]	; 0x30
 800415c:	2800      	cmp	r0, #0
 800415e:	980c      	ldr	r0, [sp, #48]	; 0x30
 8004160:	bfa2      	ittt	ge
 8004162:	990a      	ldrge	r1, [sp, #40]	; 0x28
 8004164:	f021 0180 	bicge.w	r1, r1, #128	; 0x80
 8004168:	910a      	strge	r1, [sp, #40]	; 0x28
 800416a:	ea54 0205 	orrs.w	r2, r4, r5
 800416e:	bf0c      	ite	eq
 8004170:	2200      	moveq	r2, #0
 8004172:	2201      	movne	r2, #1
 8004174:	2800      	cmp	r0, #0
 8004176:	bf18      	it	ne
 8004178:	f042 0201 	orrne.w	r2, r2, #1
 800417c:	2a00      	cmp	r2, #0
 800417e:	f000 83e5 	beq.w	800494c <_svfprintf_r+0x9fc>
 8004182:	2b01      	cmp	r3, #1
 8004184:	f000 8509 	beq.w	8004b9a <_svfprintf_r+0xc4a>
 8004188:	2b02      	cmp	r3, #2
 800418a:	f10d 02df 	add.w	r2, sp, #223	; 0xdf
 800418e:	f040 8159 	bne.w	8004444 <_svfprintf_r+0x4f4>
 8004192:	f8dd c064 	ldr.w	ip, [sp, #100]	; 0x64
 8004196:	f004 010f 	and.w	r1, r4, #15
 800419a:	0923      	lsrs	r3, r4, #4
 800419c:	ea43 7305 	orr.w	r3, r3, r5, lsl #28
 80041a0:	0928      	lsrs	r0, r5, #4
 80041a2:	f81c 1001 	ldrb.w	r1, [ip, r1]
 80041a6:	461c      	mov	r4, r3
 80041a8:	4605      	mov	r5, r0
 80041aa:	4690      	mov	r8, r2
 80041ac:	ea54 0005 	orrs.w	r0, r4, r5
 80041b0:	f102 32ff 	add.w	r2, r2, #4294967295
 80041b4:	f888 1000 	strb.w	r1, [r8]
 80041b8:	d1ed      	bne.n	8004196 <_svfprintf_r+0x246>
 80041ba:	9b09      	ldr	r3, [sp, #36]	; 0x24
 80041bc:	ebc8 0303 	rsb	r3, r8, r3
 80041c0:	9310      	str	r3, [sp, #64]	; 0x40
 80041c2:	9c0c      	ldr	r4, [sp, #48]	; 0x30
 80041c4:	9d10      	ldr	r5, [sp, #64]	; 0x40
 80041c6:	42a5      	cmp	r5, r4
 80041c8:	bfb8      	it	lt
 80041ca:	4625      	movlt	r5, r4
 80041cc:	2400      	movs	r4, #0
 80041ce:	950d      	str	r5, [sp, #52]	; 0x34
 80041d0:	9418      	str	r4, [sp, #96]	; 0x60
 80041d2:	f1ba 0f00 	cmp.w	sl, #0
 80041d6:	d002      	beq.n	80041de <_svfprintf_r+0x28e>
 80041d8:	9d0d      	ldr	r5, [sp, #52]	; 0x34
 80041da:	3501      	adds	r5, #1
 80041dc:	950d      	str	r5, [sp, #52]	; 0x34
 80041de:	9b0a      	ldr	r3, [sp, #40]	; 0x28
 80041e0:	f013 0302 	ands.w	r3, r3, #2
 80041e4:	930f      	str	r3, [sp, #60]	; 0x3c
 80041e6:	bf1e      	ittt	ne
 80041e8:	9c0d      	ldrne	r4, [sp, #52]	; 0x34
 80041ea:	3402      	addne	r4, #2
 80041ec:	940d      	strne	r4, [sp, #52]	; 0x34
 80041ee:	9c0a      	ldr	r4, [sp, #40]	; 0x28
 80041f0:	f014 0584 	ands.w	r5, r4, #132	; 0x84
 80041f4:	f040 8346 	bne.w	8004884 <_svfprintf_r+0x934>
 80041f8:	9c13      	ldr	r4, [sp, #76]	; 0x4c
 80041fa:	980d      	ldr	r0, [sp, #52]	; 0x34
 80041fc:	ebc0 0b04 	rsb	fp, r0, r4
 8004200:	f1bb 0f00 	cmp.w	fp, #0
 8004204:	f340 833e 	ble.w	8004884 <_svfprintf_r+0x934>
 8004208:	f1bb 0f10 	cmp.w	fp, #16
 800420c:	f24a 0a24 	movw	sl, #40996	; 0xa024
 8004210:	992d      	ldr	r1, [sp, #180]	; 0xb4
 8004212:	bfdc      	itt	le
 8004214:	f6c0 0a00 	movtle	sl, #2048	; 0x800
 8004218:	9a2c      	ldrle	r2, [sp, #176]	; 0xb0
 800421a:	dd32      	ble.n	8004282 <_svfprintf_r+0x332>
 800421c:	f6c0 0a00 	movt	sl, #2048	; 0x800
 8004220:	f8cd 807c 	str.w	r8, [sp, #124]	; 0x7c
 8004224:	9520      	str	r5, [sp, #128]	; 0x80
 8004226:	46d8      	mov	r8, fp
 8004228:	9a2c      	ldr	r2, [sp, #176]	; 0xb0
 800422a:	46d3      	mov	fp, sl
 800422c:	2410      	movs	r4, #16
 800422e:	46ca      	mov	sl, r9
 8004230:	9d15      	ldr	r5, [sp, #84]	; 0x54
 8004232:	f8dd 902c 	ldr.w	r9, [sp, #44]	; 0x2c
 8004236:	e004      	b.n	8004242 <_svfprintf_r+0x2f2>
 8004238:	f1a8 0810 	sub.w	r8, r8, #16
 800423c:	f1b8 0f10 	cmp.w	r8, #16
 8004240:	dd19      	ble.n	8004276 <_svfprintf_r+0x326>
 8004242:	3201      	adds	r2, #1
 8004244:	3110      	adds	r1, #16
 8004246:	2a07      	cmp	r2, #7
 8004248:	603d      	str	r5, [r7, #0]
 800424a:	607c      	str	r4, [r7, #4]
 800424c:	f107 0708 	add.w	r7, r7, #8
 8004250:	922c      	str	r2, [sp, #176]	; 0xb0
 8004252:	912d      	str	r1, [sp, #180]	; 0xb4
 8004254:	ddf0      	ble.n	8004238 <_svfprintf_r+0x2e8>
 8004256:	980e      	ldr	r0, [sp, #56]	; 0x38
 8004258:	4649      	mov	r1, r9
 800425a:	aa2b      	add	r2, sp, #172	; 0xac
 800425c:	af38      	add	r7, sp, #224	; 0xe0
 800425e:	f003 fb1b 	bl	8007898 <__ssprint_r>
 8004262:	2800      	cmp	r0, #0
 8004264:	f47f af59 	bne.w	800411a <_svfprintf_r+0x1ca>
 8004268:	f1a8 0810 	sub.w	r8, r8, #16
 800426c:	992d      	ldr	r1, [sp, #180]	; 0xb4
 800426e:	f1b8 0f10 	cmp.w	r8, #16
 8004272:	9a2c      	ldr	r2, [sp, #176]	; 0xb0
 8004274:	dce5      	bgt.n	8004242 <_svfprintf_r+0x2f2>
 8004276:	46d1      	mov	r9, sl
 8004278:	9d20      	ldr	r5, [sp, #128]	; 0x80
 800427a:	46da      	mov	sl, fp
 800427c:	46c3      	mov	fp, r8
 800427e:	f8dd 807c 	ldr.w	r8, [sp, #124]	; 0x7c
 8004282:	3201      	adds	r2, #1
 8004284:	eb0b 0401 	add.w	r4, fp, r1
 8004288:	2a07      	cmp	r2, #7
 800428a:	922c      	str	r2, [sp, #176]	; 0xb0
 800428c:	942d      	str	r4, [sp, #180]	; 0xb4
 800428e:	e887 0c00 	stmia.w	r7, {sl, fp}
 8004292:	f300 82ec 	bgt.w	800486e <_svfprintf_r+0x91e>
 8004296:	f89d a08f 	ldrb.w	sl, [sp, #143]	; 0x8f
 800429a:	3708      	adds	r7, #8
 800429c:	f1ba 0f00 	cmp.w	sl, #0
 80042a0:	d00e      	beq.n	80042c0 <_svfprintf_r+0x370>
 80042a2:	9b2c      	ldr	r3, [sp, #176]	; 0xb0
 80042a4:	f10d 028f 	add.w	r2, sp, #143	; 0x8f
 80042a8:	3401      	adds	r4, #1
 80042aa:	603a      	str	r2, [r7, #0]
 80042ac:	3301      	adds	r3, #1
 80042ae:	2201      	movs	r2, #1
 80042b0:	2b07      	cmp	r3, #7
 80042b2:	607a      	str	r2, [r7, #4]
 80042b4:	942d      	str	r4, [sp, #180]	; 0xb4
 80042b6:	bfd8      	it	le
 80042b8:	3708      	addle	r7, #8
 80042ba:	932c      	str	r3, [sp, #176]	; 0xb0
 80042bc:	f300 8402 	bgt.w	8004ac4 <_svfprintf_r+0xb74>
 80042c0:	9b0f      	ldr	r3, [sp, #60]	; 0x3c
 80042c2:	b16b      	cbz	r3, 80042e0 <_svfprintf_r+0x390>
 80042c4:	9b2c      	ldr	r3, [sp, #176]	; 0xb0
 80042c6:	aa24      	add	r2, sp, #144	; 0x90
 80042c8:	3402      	adds	r4, #2
 80042ca:	603a      	str	r2, [r7, #0]
 80042cc:	3301      	adds	r3, #1
 80042ce:	2202      	movs	r2, #2
 80042d0:	2b07      	cmp	r3, #7
 80042d2:	607a      	str	r2, [r7, #4]
 80042d4:	942d      	str	r4, [sp, #180]	; 0xb4
 80042d6:	bfd8      	it	le
 80042d8:	3708      	addle	r7, #8
 80042da:	932c      	str	r3, [sp, #176]	; 0xb0
 80042dc:	f300 83fe 	bgt.w	8004adc <_svfprintf_r+0xb8c>
 80042e0:	2d80      	cmp	r5, #128	; 0x80
 80042e2:	f000 8346 	beq.w	8004972 <_svfprintf_r+0xa22>
 80042e6:	9d0c      	ldr	r5, [sp, #48]	; 0x30
 80042e8:	9b10      	ldr	r3, [sp, #64]	; 0x40
 80042ea:	ebc3 0a05 	rsb	sl, r3, r5
 80042ee:	f1ba 0f00 	cmp.w	sl, #0
 80042f2:	dd43      	ble.n	800437c <_svfprintf_r+0x42c>
 80042f4:	f1ba 0f10 	cmp.w	sl, #16
 80042f8:	9b2c      	ldr	r3, [sp, #176]	; 0xb0
 80042fa:	bfdc      	itt	le
 80042fc:	4d94      	ldrle	r5, [pc, #592]	; (8004550 <_svfprintf_r+0x600>)
 80042fe:	950f      	strle	r5, [sp, #60]	; 0x3c
 8004300:	dd27      	ble.n	8004352 <_svfprintf_r+0x402>
 8004302:	4893      	ldr	r0, [pc, #588]	; (8004550 <_svfprintf_r+0x600>)
 8004304:	4622      	mov	r2, r4
 8004306:	2510      	movs	r5, #16
 8004308:	f8dd b038 	ldr.w	fp, [sp, #56]	; 0x38
 800430c:	9c0b      	ldr	r4, [sp, #44]	; 0x2c
 800430e:	900f      	str	r0, [sp, #60]	; 0x3c
 8004310:	e004      	b.n	800431c <_svfprintf_r+0x3cc>
 8004312:	f1aa 0a10 	sub.w	sl, sl, #16
 8004316:	f1ba 0f10 	cmp.w	sl, #16
 800431a:	dd19      	ble.n	8004350 <_svfprintf_r+0x400>
 800431c:	3301      	adds	r3, #1
 800431e:	3210      	adds	r2, #16
 8004320:	2b07      	cmp	r3, #7
 8004322:	603e      	str	r6, [r7, #0]
 8004324:	607d      	str	r5, [r7, #4]
 8004326:	f107 0708 	add.w	r7, r7, #8
 800432a:	932c      	str	r3, [sp, #176]	; 0xb0
 800432c:	922d      	str	r2, [sp, #180]	; 0xb4
 800432e:	ddf0      	ble.n	8004312 <_svfprintf_r+0x3c2>
 8004330:	4658      	mov	r0, fp
 8004332:	4621      	mov	r1, r4
 8004334:	aa2b      	add	r2, sp, #172	; 0xac
 8004336:	af38      	add	r7, sp, #224	; 0xe0
 8004338:	f003 faae 	bl	8007898 <__ssprint_r>
 800433c:	2800      	cmp	r0, #0
 800433e:	f47f aeec 	bne.w	800411a <_svfprintf_r+0x1ca>
 8004342:	f1aa 0a10 	sub.w	sl, sl, #16
 8004346:	9a2d      	ldr	r2, [sp, #180]	; 0xb4
 8004348:	f1ba 0f10 	cmp.w	sl, #16
 800434c:	9b2c      	ldr	r3, [sp, #176]	; 0xb0
 800434e:	dce5      	bgt.n	800431c <_svfprintf_r+0x3cc>
 8004350:	4614      	mov	r4, r2
 8004352:	3301      	adds	r3, #1
 8004354:	9d0f      	ldr	r5, [sp, #60]	; 0x3c
 8004356:	2b07      	cmp	r3, #7
 8004358:	4454      	add	r4, sl
 800435a:	932c      	str	r3, [sp, #176]	; 0xb0
 800435c:	e887 0420 	stmia.w	r7, {r5, sl}
 8004360:	bfd8      	it	le
 8004362:	3708      	addle	r7, #8
 8004364:	942d      	str	r4, [sp, #180]	; 0xb4
 8004366:	dd09      	ble.n	800437c <_svfprintf_r+0x42c>
 8004368:	980e      	ldr	r0, [sp, #56]	; 0x38
 800436a:	aa2b      	add	r2, sp, #172	; 0xac
 800436c:	990b      	ldr	r1, [sp, #44]	; 0x2c
 800436e:	f003 fa93 	bl	8007898 <__ssprint_r>
 8004372:	2800      	cmp	r0, #0
 8004374:	f47f aed1 	bne.w	800411a <_svfprintf_r+0x1ca>
 8004378:	9c2d      	ldr	r4, [sp, #180]	; 0xb4
 800437a:	af38      	add	r7, sp, #224	; 0xe0
 800437c:	9d0a      	ldr	r5, [sp, #40]	; 0x28
 800437e:	05eb      	lsls	r3, r5, #23
 8004380:	f100 8282 	bmi.w	8004888 <_svfprintf_r+0x938>
 8004384:	9b2c      	ldr	r3, [sp, #176]	; 0xb0
 8004386:	9d10      	ldr	r5, [sp, #64]	; 0x40
 8004388:	3301      	adds	r3, #1
 800438a:	f8c7 8000 	str.w	r8, [r7]
 800438e:	2b07      	cmp	r3, #7
 8004390:	442c      	add	r4, r5
 8004392:	607d      	str	r5, [r7, #4]
 8004394:	942d      	str	r4, [sp, #180]	; 0xb4
 8004396:	932c      	str	r3, [sp, #176]	; 0xb0
 8004398:	f300 837a 	bgt.w	8004a90 <_svfprintf_r+0xb40>
 800439c:	3708      	adds	r7, #8
 800439e:	9d0a      	ldr	r5, [sp, #40]	; 0x28
 80043a0:	076b      	lsls	r3, r5, #29
 80043a2:	d540      	bpl.n	8004426 <_svfprintf_r+0x4d6>
 80043a4:	9813      	ldr	r0, [sp, #76]	; 0x4c
 80043a6:	990d      	ldr	r1, [sp, #52]	; 0x34
 80043a8:	1a45      	subs	r5, r0, r1
 80043aa:	2d00      	cmp	r5, #0
 80043ac:	dd3b      	ble.n	8004426 <_svfprintf_r+0x4d6>
 80043ae:	2d10      	cmp	r5, #16
 80043b0:	f24a 0a24 	movw	sl, #40996	; 0xa024
 80043b4:	9b2c      	ldr	r3, [sp, #176]	; 0xb0
 80043b6:	f6c0 0a00 	movt	sl, #2048	; 0x800
 80043ba:	dd22      	ble.n	8004402 <_svfprintf_r+0x4b2>
 80043bc:	4622      	mov	r2, r4
 80043be:	f04f 0810 	mov.w	r8, #16
 80043c2:	f8dd b038 	ldr.w	fp, [sp, #56]	; 0x38
 80043c6:	9c15      	ldr	r4, [sp, #84]	; 0x54
 80043c8:	e002      	b.n	80043d0 <_svfprintf_r+0x480>
 80043ca:	3d10      	subs	r5, #16
 80043cc:	2d10      	cmp	r5, #16
 80043ce:	dd17      	ble.n	8004400 <_svfprintf_r+0x4b0>
 80043d0:	3301      	adds	r3, #1
 80043d2:	3210      	adds	r2, #16
 80043d4:	2b07      	cmp	r3, #7
 80043d6:	e887 0110 	stmia.w	r7, {r4, r8}
 80043da:	932c      	str	r3, [sp, #176]	; 0xb0
 80043dc:	f107 0708 	add.w	r7, r7, #8
 80043e0:	922d      	str	r2, [sp, #180]	; 0xb4
 80043e2:	ddf2      	ble.n	80043ca <_svfprintf_r+0x47a>
 80043e4:	4658      	mov	r0, fp
 80043e6:	990b      	ldr	r1, [sp, #44]	; 0x2c
 80043e8:	aa2b      	add	r2, sp, #172	; 0xac
 80043ea:	af38      	add	r7, sp, #224	; 0xe0
 80043ec:	f003 fa54 	bl	8007898 <__ssprint_r>
 80043f0:	2800      	cmp	r0, #0
 80043f2:	f47f ae92 	bne.w	800411a <_svfprintf_r+0x1ca>
 80043f6:	3d10      	subs	r5, #16
 80043f8:	9a2d      	ldr	r2, [sp, #180]	; 0xb4
 80043fa:	2d10      	cmp	r5, #16
 80043fc:	9b2c      	ldr	r3, [sp, #176]	; 0xb0
 80043fe:	dce7      	bgt.n	80043d0 <_svfprintf_r+0x480>
 8004400:	4614      	mov	r4, r2
 8004402:	3301      	adds	r3, #1
 8004404:	442c      	add	r4, r5
 8004406:	2b07      	cmp	r3, #7
 8004408:	932c      	str	r3, [sp, #176]	; 0xb0
 800440a:	942d      	str	r4, [sp, #180]	; 0xb4
 800440c:	f8c7 a000 	str.w	sl, [r7]
 8004410:	607d      	str	r5, [r7, #4]
 8004412:	dd08      	ble.n	8004426 <_svfprintf_r+0x4d6>
 8004414:	980e      	ldr	r0, [sp, #56]	; 0x38
 8004416:	aa2b      	add	r2, sp, #172	; 0xac
 8004418:	990b      	ldr	r1, [sp, #44]	; 0x2c
 800441a:	f003 fa3d 	bl	8007898 <__ssprint_r>
 800441e:	2800      	cmp	r0, #0
 8004420:	f47f ae7b 	bne.w	800411a <_svfprintf_r+0x1ca>
 8004424:	9c2d      	ldr	r4, [sp, #180]	; 0xb4
 8004426:	9d12      	ldr	r5, [sp, #72]	; 0x48
 8004428:	990d      	ldr	r1, [sp, #52]	; 0x34
 800442a:	9813      	ldr	r0, [sp, #76]	; 0x4c
 800442c:	4281      	cmp	r1, r0
 800442e:	bfac      	ite	ge
 8004430:	186d      	addge	r5, r5, r1
 8004432:	182d      	addlt	r5, r5, r0
 8004434:	9512      	str	r5, [sp, #72]	; 0x48
 8004436:	2c00      	cmp	r4, #0
 8004438:	f040 8335 	bne.w	8004aa6 <_svfprintf_r+0xb56>
 800443c:	2300      	movs	r3, #0
 800443e:	af38      	add	r7, sp, #224	; 0xe0
 8004440:	932c      	str	r3, [sp, #176]	; 0xb0
 8004442:	e5bb      	b.n	8003fbc <_svfprintf_r+0x6c>
 8004444:	08e3      	lsrs	r3, r4, #3
 8004446:	08e9      	lsrs	r1, r5, #3
 8004448:	ea43 7345 	orr.w	r3, r3, r5, lsl #29
 800444c:	4690      	mov	r8, r2
 800444e:	460d      	mov	r5, r1
 8004450:	f004 0207 	and.w	r2, r4, #7
 8004454:	461c      	mov	r4, r3
 8004456:	f102 0330 	add.w	r3, r2, #48	; 0x30
 800445a:	ea54 0105 	orrs.w	r1, r4, r5
 800445e:	f108 32ff 	add.w	r2, r8, #4294967295
 8004462:	f888 3000 	strb.w	r3, [r8]
 8004466:	d1ed      	bne.n	8004444 <_svfprintf_r+0x4f4>
 8004468:	9c0a      	ldr	r4, [sp, #40]	; 0x28
 800446a:	4641      	mov	r1, r8
 800446c:	07e0      	lsls	r0, r4, #31
 800446e:	f100 84f5 	bmi.w	8004e5c <_svfprintf_r+0xf0c>
 8004472:	9d09      	ldr	r5, [sp, #36]	; 0x24
 8004474:	ebc8 0505 	rsb	r5, r8, r5
 8004478:	9510      	str	r5, [sp, #64]	; 0x40
 800447a:	e6a2      	b.n	80041c2 <_svfprintf_r+0x272>
 800447c:	9d0a      	ldr	r5, [sp, #40]	; 0x28
 800447e:	9316      	str	r3, [sp, #88]	; 0x58
 8004480:	f015 0320 	ands.w	r3, r5, #32
 8004484:	f000 80b4 	beq.w	80045f0 <_svfprintf_r+0x6a0>
 8004488:	9c14      	ldr	r4, [sp, #80]	; 0x50
 800448a:	2300      	movs	r3, #0
 800448c:	1de2      	adds	r2, r4, #7
 800448e:	f022 0207 	bic.w	r2, r2, #7
 8004492:	f102 0508 	add.w	r5, r2, #8
 8004496:	9514      	str	r5, [sp, #80]	; 0x50
 8004498:	e9d2 4500 	ldrd	r4, r5, [r2]
 800449c:	e659      	b.n	8004152 <_svfprintf_r+0x202>
 800449e:	f899 3000 	ldrb.w	r3, [r9]
 80044a2:	f109 0401 	add.w	r4, r9, #1
 80044a6:	2b2a      	cmp	r3, #42	; 0x2a
 80044a8:	f000 8791 	beq.w	80053ce <_svfprintf_r+0x147e>
 80044ac:	f1a3 0130 	sub.w	r1, r3, #48	; 0x30
 80044b0:	2909      	cmp	r1, #9
 80044b2:	bf82      	ittt	hi
 80044b4:	46a1      	movhi	r9, r4
 80044b6:	2400      	movhi	r4, #0
 80044b8:	940c      	strhi	r4, [sp, #48]	; 0x30
 80044ba:	f63f adb4 	bhi.w	8004026 <_svfprintf_r+0xd6>
 80044be:	2000      	movs	r0, #0
 80044c0:	eb00 0080 	add.w	r0, r0, r0, lsl #2
 80044c4:	f814 3b01 	ldrb.w	r3, [r4], #1
 80044c8:	eb01 0040 	add.w	r0, r1, r0, lsl #1
 80044cc:	f1a3 0130 	sub.w	r1, r3, #48	; 0x30
 80044d0:	2909      	cmp	r1, #9
 80044d2:	d9f5      	bls.n	80044c0 <_svfprintf_r+0x570>
 80044d4:	ea40 70e0 	orr.w	r0, r0, r0, asr #31
 80044d8:	46a1      	mov	r9, r4
 80044da:	900c      	str	r0, [sp, #48]	; 0x30
 80044dc:	e5a3      	b.n	8004026 <_svfprintf_r+0xd6>
 80044de:	9d0a      	ldr	r5, [sp, #40]	; 0x28
 80044e0:	9316      	str	r3, [sp, #88]	; 0x58
 80044e2:	f045 0510 	orr.w	r5, r5, #16
 80044e6:	950a      	str	r5, [sp, #40]	; 0x28
 80044e8:	9c0a      	ldr	r4, [sp, #40]	; 0x28
 80044ea:	06a3      	lsls	r3, r4, #26
 80044ec:	f53f ae27 	bmi.w	800413e <_svfprintf_r+0x1ee>
 80044f0:	9d0a      	ldr	r5, [sp, #40]	; 0x28
 80044f2:	06ed      	lsls	r5, r5, #27
 80044f4:	f100 83c4 	bmi.w	8004c80 <_svfprintf_r+0xd30>
 80044f8:	9c0a      	ldr	r4, [sp, #40]	; 0x28
 80044fa:	0664      	lsls	r4, r4, #25
 80044fc:	f140 83c0 	bpl.w	8004c80 <_svfprintf_r+0xd30>
 8004500:	9814      	ldr	r0, [sp, #80]	; 0x50
 8004502:	2500      	movs	r5, #0
 8004504:	2301      	movs	r3, #1
 8004506:	3004      	adds	r0, #4
 8004508:	f830 4c04 	ldrh.w	r4, [r0, #-4]
 800450c:	9014      	str	r0, [sp, #80]	; 0x50
 800450e:	e620      	b.n	8004152 <_svfprintf_r+0x202>
 8004510:	9c0a      	ldr	r4, [sp, #40]	; 0x28
 8004512:	9316      	str	r3, [sp, #88]	; 0x58
 8004514:	f044 0410 	orr.w	r4, r4, #16
 8004518:	940a      	str	r4, [sp, #40]	; 0x28
 800451a:	9d0a      	ldr	r5, [sp, #40]	; 0x28
 800451c:	f88d 208f 	strb.w	r2, [sp, #143]	; 0x8f
 8004520:	06a9      	lsls	r1, r5, #26
 8004522:	f140 8165 	bpl.w	80047f0 <_svfprintf_r+0x8a0>
 8004526:	9c14      	ldr	r4, [sp, #80]	; 0x50
 8004528:	1de3      	adds	r3, r4, #7
 800452a:	f023 0307 	bic.w	r3, r3, #7
 800452e:	f103 0508 	add.w	r5, r3, #8
 8004532:	9514      	str	r5, [sp, #80]	; 0x50
 8004534:	e9d3 2300 	ldrd	r2, r3, [r3]
 8004538:	4614      	mov	r4, r2
 800453a:	461d      	mov	r5, r3
 800453c:	2a00      	cmp	r2, #0
 800453e:	f173 0000 	sbcs.w	r0, r3, #0
 8004542:	f2c0 83bb 	blt.w	8004cbc <_svfprintf_r+0xd6c>
 8004546:	f89d a08f 	ldrb.w	sl, [sp, #143]	; 0x8f
 800454a:	2301      	movs	r3, #1
 800454c:	e605      	b.n	800415a <_svfprintf_r+0x20a>
 800454e:	bf00      	nop
 8004550:	0800a034 	stmdaeq	r0, {r2, r4, r5, sp, pc}
 8004554:	9c0a      	ldr	r4, [sp, #40]	; 0x28
 8004556:	9316      	str	r3, [sp, #88]	; 0x58
 8004558:	0725      	lsls	r5, r4, #28
 800455a:	f88d 208f 	strb.w	r2, [sp, #143]	; 0x8f
 800455e:	f140 84ab 	bpl.w	8004eb8 <_svfprintf_r+0xf68>
 8004562:	9d14      	ldr	r5, [sp, #80]	; 0x50
 8004564:	1deb      	adds	r3, r5, #7
 8004566:	f023 0307 	bic.w	r3, r3, #7
 800456a:	f103 0408 	add.w	r4, r3, #8
 800456e:	9414      	str	r4, [sp, #80]	; 0x50
 8004570:	681d      	ldr	r5, [r3, #0]
 8004572:	951b      	str	r5, [sp, #108]	; 0x6c
 8004574:	685b      	ldr	r3, [r3, #4]
 8004576:	931c      	str	r3, [sp, #112]	; 0x70
 8004578:	981b      	ldr	r0, [sp, #108]	; 0x6c
 800457a:	991c      	ldr	r1, [sp, #112]	; 0x70
 800457c:	f003 f802 	bl	8007584 <__fpclassifyd>
 8004580:	2801      	cmp	r0, #1
 8004582:	981b      	ldr	r0, [sp, #108]	; 0x6c
 8004584:	f040 8478 	bne.w	8004e78 <_svfprintf_r+0xf28>
 8004588:	2200      	movs	r2, #0
 800458a:	2300      	movs	r3, #0
 800458c:	991c      	ldr	r1, [sp, #112]	; 0x70
 800458e:	f005 f953 	bl	8009838 <__aeabi_dcmplt>
 8004592:	2800      	cmp	r0, #0
 8004594:	f040 864a 	bne.w	800522c <_svfprintf_r+0x12dc>
 8004598:	f89d a08f 	ldrb.w	sl, [sp, #143]	; 0x8f
 800459c:	2503      	movs	r5, #3
 800459e:	2400      	movs	r4, #0
 80045a0:	f24a 4820 	movw	r8, #42016	; 0xa420
 80045a4:	f24a 431c 	movw	r3, #42012	; 0xa41c
 80045a8:	950d      	str	r5, [sp, #52]	; 0x34
 80045aa:	f6c0 0800 	movt	r8, #2048	; 0x800
 80045ae:	9d0a      	ldr	r5, [sp, #40]	; 0x28
 80045b0:	f6c0 0300 	movt	r3, #2048	; 0x800
 80045b4:	940c      	str	r4, [sp, #48]	; 0x30
 80045b6:	9c16      	ldr	r4, [sp, #88]	; 0x58
 80045b8:	f025 0580 	bic.w	r5, r5, #128	; 0x80
 80045bc:	950a      	str	r5, [sp, #40]	; 0x28
 80045be:	2503      	movs	r5, #3
 80045c0:	2c47      	cmp	r4, #71	; 0x47
 80045c2:	bfd8      	it	le
 80045c4:	4698      	movle	r8, r3
 80045c6:	9510      	str	r5, [sp, #64]	; 0x40
 80045c8:	2400      	movs	r4, #0
 80045ca:	9418      	str	r4, [sp, #96]	; 0x60
 80045cc:	e601      	b.n	80041d2 <_svfprintf_r+0x282>
 80045ce:	9d0a      	ldr	r5, [sp, #40]	; 0x28
 80045d0:	f045 0508 	orr.w	r5, r5, #8
 80045d4:	950a      	str	r5, [sp, #40]	; 0x28
 80045d6:	f899 3000 	ldrb.w	r3, [r9]
 80045da:	e522      	b.n	8004022 <_svfprintf_r+0xd2>
 80045dc:	9c0a      	ldr	r4, [sp, #40]	; 0x28
 80045de:	9316      	str	r3, [sp, #88]	; 0x58
 80045e0:	f044 0410 	orr.w	r4, r4, #16
 80045e4:	940a      	str	r4, [sp, #40]	; 0x28
 80045e6:	9d0a      	ldr	r5, [sp, #40]	; 0x28
 80045e8:	f015 0320 	ands.w	r3, r5, #32
 80045ec:	f47f af4c 	bne.w	8004488 <_svfprintf_r+0x538>
 80045f0:	9c0a      	ldr	r4, [sp, #40]	; 0x28
 80045f2:	f014 0210 	ands.w	r2, r4, #16
 80045f6:	f040 834c 	bne.w	8004c92 <_svfprintf_r+0xd42>
 80045fa:	9c0a      	ldr	r4, [sp, #40]	; 0x28
 80045fc:	f014 0340 	ands.w	r3, r4, #64	; 0x40
 8004600:	f000 8347 	beq.w	8004c92 <_svfprintf_r+0xd42>
 8004604:	9814      	ldr	r0, [sp, #80]	; 0x50
 8004606:	4613      	mov	r3, r2
 8004608:	2500      	movs	r5, #0
 800460a:	3004      	adds	r0, #4
 800460c:	f830 4c04 	ldrh.w	r4, [r0, #-4]
 8004610:	9014      	str	r0, [sp, #80]	; 0x50
 8004612:	e59e      	b.n	8004152 <_svfprintf_r+0x202>
 8004614:	9d0a      	ldr	r5, [sp, #40]	; 0x28
 8004616:	f045 0520 	orr.w	r5, r5, #32
 800461a:	950a      	str	r5, [sp, #40]	; 0x28
 800461c:	f899 3000 	ldrb.w	r3, [r9]
 8004620:	e4ff      	b.n	8004022 <_svfprintf_r+0xd2>
 8004622:	9c14      	ldr	r4, [sp, #80]	; 0x50
 8004624:	2500      	movs	r5, #0
 8004626:	9316      	str	r3, [sp, #88]	; 0x58
 8004628:	3404      	adds	r4, #4
 800462a:	f88d 508f 	strb.w	r5, [sp, #143]	; 0x8f
 800462e:	f854 8c04 	ldr.w	r8, [r4, #-4]
 8004632:	f1b8 0f00 	cmp.w	r8, #0
 8004636:	f000 85d9 	beq.w	80051ec <_svfprintf_r+0x129c>
 800463a:	980c      	ldr	r0, [sp, #48]	; 0x30
 800463c:	2800      	cmp	r0, #0
 800463e:	4640      	mov	r0, r8
 8004640:	f2c0 85ab 	blt.w	800519a <_svfprintf_r+0x124a>
 8004644:	4629      	mov	r1, r5
 8004646:	9a0c      	ldr	r2, [sp, #48]	; 0x30
 8004648:	f002 fa60 	bl	8006b0c <memchr>
 800464c:	2800      	cmp	r0, #0
 800464e:	f000 85ff 	beq.w	8005250 <_svfprintf_r+0x1300>
 8004652:	9414      	str	r4, [sp, #80]	; 0x50
 8004654:	ebc8 0000 	rsb	r0, r8, r0
 8004658:	9c0c      	ldr	r4, [sp, #48]	; 0x30
 800465a:	950c      	str	r5, [sp, #48]	; 0x30
 800465c:	42a0      	cmp	r0, r4
 800465e:	bfb8      	it	lt
 8004660:	4604      	movlt	r4, r0
 8004662:	9410      	str	r4, [sp, #64]	; 0x40
 8004664:	ea24 75e4 	bic.w	r5, r4, r4, asr #31
 8004668:	9c0c      	ldr	r4, [sp, #48]	; 0x30
 800466a:	950d      	str	r5, [sp, #52]	; 0x34
 800466c:	f89d a08f 	ldrb.w	sl, [sp, #143]	; 0x8f
 8004670:	9418      	str	r4, [sp, #96]	; 0x60
 8004672:	e5ae      	b.n	80041d2 <_svfprintf_r+0x282>
 8004674:	9d0a      	ldr	r5, [sp, #40]	; 0x28
 8004676:	f24a 4440 	movw	r4, #42048	; 0xa440
 800467a:	f6c0 0400 	movt	r4, #2048	; 0x800
 800467e:	9316      	str	r3, [sp, #88]	; 0x58
 8004680:	06a8      	lsls	r0, r5, #26
 8004682:	f88d 208f 	strb.w	r2, [sp, #143]	; 0x8f
 8004686:	9419      	str	r4, [sp, #100]	; 0x64
 8004688:	f140 809c 	bpl.w	80047c4 <_svfprintf_r+0x874>
 800468c:	9c14      	ldr	r4, [sp, #80]	; 0x50
 800468e:	1de3      	adds	r3, r4, #7
 8004690:	f023 0307 	bic.w	r3, r3, #7
 8004694:	f103 0508 	add.w	r5, r3, #8
 8004698:	9514      	str	r5, [sp, #80]	; 0x50
 800469a:	e9d3 4500 	ldrd	r4, r5, [r3]
 800469e:	980a      	ldr	r0, [sp, #40]	; 0x28
 80046a0:	07c3      	lsls	r3, r0, #31
 80046a2:	f140 8227 	bpl.w	8004af4 <_svfprintf_r+0xba4>
 80046a6:	ea54 0105 	orrs.w	r1, r4, r5
 80046aa:	f000 8223 	beq.w	8004af4 <_svfprintf_r+0xba4>
 80046ae:	9a16      	ldr	r2, [sp, #88]	; 0x58
 80046b0:	2330      	movs	r3, #48	; 0x30
 80046b2:	f040 0002 	orr.w	r0, r0, #2
 80046b6:	f88d 3090 	strb.w	r3, [sp, #144]	; 0x90
 80046ba:	900a      	str	r0, [sp, #40]	; 0x28
 80046bc:	2302      	movs	r3, #2
 80046be:	f88d 2091 	strb.w	r2, [sp, #145]	; 0x91
 80046c2:	e546      	b.n	8004152 <_svfprintf_r+0x202>
 80046c4:	f899 3000 	ldrb.w	r3, [r9]
 80046c8:	222b      	movs	r2, #43	; 0x2b
 80046ca:	e4aa      	b.n	8004022 <_svfprintf_r+0xd2>
 80046cc:	f899 3000 	ldrb.w	r3, [r9]
 80046d0:	4649      	mov	r1, r9
 80046d2:	2b6c      	cmp	r3, #108	; 0x6c
 80046d4:	bf05      	ittet	eq
 80046d6:	f109 0901 	addeq.w	r9, r9, #1
 80046da:	9d0a      	ldreq	r5, [sp, #40]	; 0x28
 80046dc:	9c0a      	ldrne	r4, [sp, #40]	; 0x28
 80046de:	f045 0520 	orreq.w	r5, r5, #32
 80046e2:	bf0b      	itete	eq
 80046e4:	784b      	ldrbeq	r3, [r1, #1]
 80046e6:	f044 0410 	orrne.w	r4, r4, #16
 80046ea:	950a      	streq	r5, [sp, #40]	; 0x28
 80046ec:	940a      	strne	r4, [sp, #40]	; 0x28
 80046ee:	e498      	b.n	8004022 <_svfprintf_r+0xd2>
 80046f0:	9d0a      	ldr	r5, [sp, #40]	; 0x28
 80046f2:	f88d 208f 	strb.w	r2, [sp, #143]	; 0x8f
 80046f6:	06a9      	lsls	r1, r5, #26
 80046f8:	f140 83eb 	bpl.w	8004ed2 <_svfprintf_r+0xf82>
 80046fc:	9c14      	ldr	r4, [sp, #80]	; 0x50
 80046fe:	6821      	ldr	r1, [r4, #0]
 8004700:	9c12      	ldr	r4, [sp, #72]	; 0x48
 8004702:	4622      	mov	r2, r4
 8004704:	17e5      	asrs	r5, r4, #31
 8004706:	462b      	mov	r3, r5
 8004708:	9d14      	ldr	r5, [sp, #80]	; 0x50
 800470a:	e9c1 2300 	strd	r2, r3, [r1]
 800470e:	3504      	adds	r5, #4
 8004710:	9514      	str	r5, [sp, #80]	; 0x50
 8004712:	e453      	b.n	8003fbc <_svfprintf_r+0x6c>
 8004714:	9a14      	ldr	r2, [sp, #80]	; 0x50
 8004716:	f24a 4040 	movw	r0, #42048	; 0xa440
 800471a:	9d0a      	ldr	r5, [sp, #40]	; 0x28
 800471c:	2378      	movs	r3, #120	; 0x78
 800471e:	f6c0 0000 	movt	r0, #2048	; 0x800
 8004722:	f88d 3091 	strb.w	r3, [sp, #145]	; 0x91
 8004726:	f045 0502 	orr.w	r5, r5, #2
 800472a:	9316      	str	r3, [sp, #88]	; 0x58
 800472c:	950a      	str	r5, [sp, #40]	; 0x28
 800472e:	2330      	movs	r3, #48	; 0x30
 8004730:	1d15      	adds	r5, r2, #4
 8004732:	f88d 3090 	strb.w	r3, [sp, #144]	; 0x90
 8004736:	9514      	str	r5, [sp, #80]	; 0x50
 8004738:	2302      	movs	r3, #2
 800473a:	6814      	ldr	r4, [r2, #0]
 800473c:	2500      	movs	r5, #0
 800473e:	9019      	str	r0, [sp, #100]	; 0x64
 8004740:	e507      	b.n	8004152 <_svfprintf_r+0x202>
 8004742:	9c0a      	ldr	r4, [sp, #40]	; 0x28
 8004744:	f044 0440 	orr.w	r4, r4, #64	; 0x40
 8004748:	940a      	str	r4, [sp, #40]	; 0x28
 800474a:	f899 3000 	ldrb.w	r3, [r9]
 800474e:	e468      	b.n	8004022 <_svfprintf_r+0xd2>
 8004750:	f899 3000 	ldrb.w	r3, [r9]
 8004754:	2a00      	cmp	r2, #0
 8004756:	f47f ac64 	bne.w	8004022 <_svfprintf_r+0xd2>
 800475a:	2220      	movs	r2, #32
 800475c:	e461      	b.n	8004022 <_svfprintf_r+0xd2>
 800475e:	9d0a      	ldr	r5, [sp, #40]	; 0x28
 8004760:	f045 0501 	orr.w	r5, r5, #1
 8004764:	950a      	str	r5, [sp, #40]	; 0x28
 8004766:	f899 3000 	ldrb.w	r3, [r9]
 800476a:	e45a      	b.n	8004022 <_svfprintf_r+0xd2>
 800476c:	9c14      	ldr	r4, [sp, #80]	; 0x50
 800476e:	9d14      	ldr	r5, [sp, #80]	; 0x50
 8004770:	6824      	ldr	r4, [r4, #0]
 8004772:	1d2b      	adds	r3, r5, #4
 8004774:	2c00      	cmp	r4, #0
 8004776:	9413      	str	r4, [sp, #76]	; 0x4c
 8004778:	f6ff acb5 	blt.w	80040e6 <_svfprintf_r+0x196>
 800477c:	9314      	str	r3, [sp, #80]	; 0x50
 800477e:	f899 3000 	ldrb.w	r3, [r9]
 8004782:	e44e      	b.n	8004022 <_svfprintf_r+0xd2>
 8004784:	9a14      	ldr	r2, [sp, #80]	; 0x50
 8004786:	2401      	movs	r4, #1
 8004788:	9d14      	ldr	r5, [sp, #80]	; 0x50
 800478a:	f10d 08b8 	add.w	r8, sp, #184	; 0xb8
 800478e:	9316      	str	r3, [sp, #88]	; 0x58
 8004790:	2300      	movs	r3, #0
 8004792:	6812      	ldr	r2, [r2, #0]
 8004794:	3504      	adds	r5, #4
 8004796:	469a      	mov	sl, r3
 8004798:	940d      	str	r4, [sp, #52]	; 0x34
 800479a:	9514      	str	r5, [sp, #80]	; 0x50
 800479c:	f88d 308f 	strb.w	r3, [sp, #143]	; 0x8f
 80047a0:	930c      	str	r3, [sp, #48]	; 0x30
 80047a2:	9318      	str	r3, [sp, #96]	; 0x60
 80047a4:	9410      	str	r4, [sp, #64]	; 0x40
 80047a6:	f88d 20b8 	strb.w	r2, [sp, #184]	; 0xb8
 80047aa:	e518      	b.n	80041de <_svfprintf_r+0x28e>
 80047ac:	9d0a      	ldr	r5, [sp, #40]	; 0x28
 80047ae:	f24a 442c 	movw	r4, #42028	; 0xa42c
 80047b2:	f6c0 0400 	movt	r4, #2048	; 0x800
 80047b6:	9316      	str	r3, [sp, #88]	; 0x58
 80047b8:	06a8      	lsls	r0, r5, #26
 80047ba:	f88d 208f 	strb.w	r2, [sp, #143]	; 0x8f
 80047be:	9419      	str	r4, [sp, #100]	; 0x64
 80047c0:	f53f af64 	bmi.w	800468c <_svfprintf_r+0x73c>
 80047c4:	9c0a      	ldr	r4, [sp, #40]	; 0x28
 80047c6:	06e1      	lsls	r1, r4, #27
 80047c8:	f100 8253 	bmi.w	8004c72 <_svfprintf_r+0xd22>
 80047cc:	9c0a      	ldr	r4, [sp, #40]	; 0x28
 80047ce:	0662      	lsls	r2, r4, #25
 80047d0:	f140 824f 	bpl.w	8004c72 <_svfprintf_r+0xd22>
 80047d4:	9814      	ldr	r0, [sp, #80]	; 0x50
 80047d6:	2500      	movs	r5, #0
 80047d8:	3004      	adds	r0, #4
 80047da:	f830 4c04 	ldrh.w	r4, [r0, #-4]
 80047de:	9014      	str	r0, [sp, #80]	; 0x50
 80047e0:	e75d      	b.n	800469e <_svfprintf_r+0x74e>
 80047e2:	9d0a      	ldr	r5, [sp, #40]	; 0x28
 80047e4:	9316      	str	r3, [sp, #88]	; 0x58
 80047e6:	06a9      	lsls	r1, r5, #26
 80047e8:	f88d 208f 	strb.w	r2, [sp, #143]	; 0x8f
 80047ec:	f53f ae9b 	bmi.w	8004526 <_svfprintf_r+0x5d6>
 80047f0:	9c0a      	ldr	r4, [sp, #40]	; 0x28
 80047f2:	06e2      	lsls	r2, r4, #27
 80047f4:	f100 8255 	bmi.w	8004ca2 <_svfprintf_r+0xd52>
 80047f8:	9c0a      	ldr	r4, [sp, #40]	; 0x28
 80047fa:	0663      	lsls	r3, r4, #25
 80047fc:	f140 8251 	bpl.w	8004ca2 <_svfprintf_r+0xd52>
 8004800:	9814      	ldr	r0, [sp, #80]	; 0x50
 8004802:	3004      	adds	r0, #4
 8004804:	f930 4c04 	ldrsh.w	r4, [r0, #-4]
 8004808:	9014      	str	r0, [sp, #80]	; 0x50
 800480a:	4622      	mov	r2, r4
 800480c:	17e5      	asrs	r5, r4, #31
 800480e:	462b      	mov	r3, r5
 8004810:	e694      	b.n	800453c <_svfprintf_r+0x5ec>
 8004812:	9d0a      	ldr	r5, [sp, #40]	; 0x28
 8004814:	f045 0580 	orr.w	r5, r5, #128	; 0x80
 8004818:	950a      	str	r5, [sp, #40]	; 0x28
 800481a:	f899 3000 	ldrb.w	r3, [r9]
 800481e:	e400      	b.n	8004022 <_svfprintf_r+0xd2>
 8004820:	2400      	movs	r4, #0
 8004822:	f1a3 0130 	sub.w	r1, r3, #48	; 0x30
 8004826:	4620      	mov	r0, r4
 8004828:	9413      	str	r4, [sp, #76]	; 0x4c
 800482a:	eb00 0080 	add.w	r0, r0, r0, lsl #2
 800482e:	f819 3b01 	ldrb.w	r3, [r9], #1
 8004832:	eb01 0040 	add.w	r0, r1, r0, lsl #1
 8004836:	f1a3 0130 	sub.w	r1, r3, #48	; 0x30
 800483a:	2909      	cmp	r1, #9
 800483c:	d9f5      	bls.n	800482a <_svfprintf_r+0x8da>
 800483e:	9013      	str	r0, [sp, #76]	; 0x4c
 8004840:	f7ff bbf1 	b.w	8004026 <_svfprintf_r+0xd6>
 8004844:	9316      	str	r3, [sp, #88]	; 0x58
 8004846:	f88d 208f 	strb.w	r2, [sp, #143]	; 0x8f
 800484a:	2b00      	cmp	r3, #0
 800484c:	f43f ac5e 	beq.w	800410c <_svfprintf_r+0x1bc>
 8004850:	9c16      	ldr	r4, [sp, #88]	; 0x58
 8004852:	2300      	movs	r3, #0
 8004854:	2501      	movs	r5, #1
 8004856:	469a      	mov	sl, r3
 8004858:	950d      	str	r5, [sp, #52]	; 0x34
 800485a:	f10d 08b8 	add.w	r8, sp, #184	; 0xb8
 800485e:	f88d 40b8 	strb.w	r4, [sp, #184]	; 0xb8
 8004862:	f88d 308f 	strb.w	r3, [sp, #143]	; 0x8f
 8004866:	930c      	str	r3, [sp, #48]	; 0x30
 8004868:	9318      	str	r3, [sp, #96]	; 0x60
 800486a:	9510      	str	r5, [sp, #64]	; 0x40
 800486c:	e4b7      	b.n	80041de <_svfprintf_r+0x28e>
 800486e:	980e      	ldr	r0, [sp, #56]	; 0x38
 8004870:	aa2b      	add	r2, sp, #172	; 0xac
 8004872:	990b      	ldr	r1, [sp, #44]	; 0x2c
 8004874:	f003 f810 	bl	8007898 <__ssprint_r>
 8004878:	2800      	cmp	r0, #0
 800487a:	f47f ac4e 	bne.w	800411a <_svfprintf_r+0x1ca>
 800487e:	f89d a08f 	ldrb.w	sl, [sp, #143]	; 0x8f
 8004882:	af38      	add	r7, sp, #224	; 0xe0
 8004884:	9c2d      	ldr	r4, [sp, #180]	; 0xb4
 8004886:	e509      	b.n	800429c <_svfprintf_r+0x34c>
 8004888:	9d16      	ldr	r5, [sp, #88]	; 0x58
 800488a:	2d65      	cmp	r5, #101	; 0x65
 800488c:	f340 80b9 	ble.w	8004a02 <_svfprintf_r+0xab2>
 8004890:	981b      	ldr	r0, [sp, #108]	; 0x6c
 8004892:	2200      	movs	r2, #0
 8004894:	2300      	movs	r3, #0
 8004896:	991c      	ldr	r1, [sp, #112]	; 0x70
 8004898:	f004 ffc4 	bl	8009824 <__aeabi_dcmpeq>
 800489c:	2800      	cmp	r0, #0
 800489e:	f000 812c 	beq.w	8004afa <_svfprintf_r+0xbaa>
 80048a2:	9b2c      	ldr	r3, [sp, #176]	; 0xb0
 80048a4:	2201      	movs	r2, #1
 80048a6:	9d17      	ldr	r5, [sp, #92]	; 0x5c
 80048a8:	3401      	adds	r4, #1
 80048aa:	4413      	add	r3, r2
 80048ac:	607a      	str	r2, [r7, #4]
 80048ae:	2b07      	cmp	r3, #7
 80048b0:	942d      	str	r4, [sp, #180]	; 0xb4
 80048b2:	603d      	str	r5, [r7, #0]
 80048b4:	bfd8      	it	le
 80048b6:	3708      	addle	r7, #8
 80048b8:	932c      	str	r3, [sp, #176]	; 0xb0
 80048ba:	f300 8316 	bgt.w	8004eea <_svfprintf_r+0xf9a>
 80048be:	9b25      	ldr	r3, [sp, #148]	; 0x94
 80048c0:	9d11      	ldr	r5, [sp, #68]	; 0x44
 80048c2:	42ab      	cmp	r3, r5
 80048c4:	db03      	blt.n	80048ce <_svfprintf_r+0x97e>
 80048c6:	9d0a      	ldr	r5, [sp, #40]	; 0x28
 80048c8:	07ed      	lsls	r5, r5, #31
 80048ca:	f57f ad68 	bpl.w	800439e <_svfprintf_r+0x44e>
 80048ce:	9d1d      	ldr	r5, [sp, #116]	; 0x74
 80048d0:	9b2c      	ldr	r3, [sp, #176]	; 0xb0
 80048d2:	442c      	add	r4, r5
 80048d4:	9d1a      	ldr	r5, [sp, #104]	; 0x68
 80048d6:	3301      	adds	r3, #1
 80048d8:	942d      	str	r4, [sp, #180]	; 0xb4
 80048da:	2b07      	cmp	r3, #7
 80048dc:	932c      	str	r3, [sp, #176]	; 0xb0
 80048de:	603d      	str	r5, [r7, #0]
 80048e0:	9d1d      	ldr	r5, [sp, #116]	; 0x74
 80048e2:	607d      	str	r5, [r7, #4]
 80048e4:	bfd8      	it	le
 80048e6:	3708      	addle	r7, #8
 80048e8:	f300 835e 	bgt.w	8004fa8 <_svfprintf_r+0x1058>
 80048ec:	9d11      	ldr	r5, [sp, #68]	; 0x44
 80048ee:	f105 38ff 	add.w	r8, r5, #4294967295
 80048f2:	f1b8 0f00 	cmp.w	r8, #0
 80048f6:	f77f ad52 	ble.w	800439e <_svfprintf_r+0x44e>
 80048fa:	f1b8 0f10 	cmp.w	r8, #16
 80048fe:	9b2c      	ldr	r3, [sp, #176]	; 0xb0
 8004900:	f340 81aa 	ble.w	8004c58 <_svfprintf_r+0xd08>
 8004904:	4dac      	ldr	r5, [pc, #688]	; (8004bb8 <_svfprintf_r+0xc68>)
 8004906:	f04f 0a10 	mov.w	sl, #16
 800490a:	f8dd b02c 	ldr.w	fp, [sp, #44]	; 0x2c
 800490e:	950f      	str	r5, [sp, #60]	; 0x3c
 8004910:	9d0e      	ldr	r5, [sp, #56]	; 0x38
 8004912:	e005      	b.n	8004920 <_svfprintf_r+0x9d0>
 8004914:	f1a8 0810 	sub.w	r8, r8, #16
 8004918:	f1b8 0f10 	cmp.w	r8, #16
 800491c:	f340 819e 	ble.w	8004c5c <_svfprintf_r+0xd0c>
 8004920:	3301      	adds	r3, #1
 8004922:	3410      	adds	r4, #16
 8004924:	2b07      	cmp	r3, #7
 8004926:	e887 0440 	stmia.w	r7, {r6, sl}
 800492a:	932c      	str	r3, [sp, #176]	; 0xb0
 800492c:	f107 0708 	add.w	r7, r7, #8
 8004930:	942d      	str	r4, [sp, #180]	; 0xb4
 8004932:	ddef      	ble.n	8004914 <_svfprintf_r+0x9c4>
 8004934:	4628      	mov	r0, r5
 8004936:	4659      	mov	r1, fp
 8004938:	aa2b      	add	r2, sp, #172	; 0xac
 800493a:	af38      	add	r7, sp, #224	; 0xe0
 800493c:	f002 ffac 	bl	8007898 <__ssprint_r>
 8004940:	2800      	cmp	r0, #0
 8004942:	f47f abea 	bne.w	800411a <_svfprintf_r+0x1ca>
 8004946:	9c2d      	ldr	r4, [sp, #180]	; 0xb4
 8004948:	9b2c      	ldr	r3, [sp, #176]	; 0xb0
 800494a:	e7e3      	b.n	8004914 <_svfprintf_r+0x9c4>
 800494c:	2b00      	cmp	r3, #0
 800494e:	f040 80b4 	bne.w	8004aba <_svfprintf_r+0xb6a>
 8004952:	9c0a      	ldr	r4, [sp, #40]	; 0x28
 8004954:	07e2      	lsls	r2, r4, #31
 8004956:	bf5c      	itt	pl
 8004958:	9310      	strpl	r3, [sp, #64]	; 0x40
 800495a:	f10d 08e0 	addpl.w	r8, sp, #224	; 0xe0
 800495e:	f57f ac30 	bpl.w	80041c2 <_svfprintf_r+0x272>
 8004962:	9d21      	ldr	r5, [sp, #132]	; 0x84
 8004964:	2330      	movs	r3, #48	; 0x30
 8004966:	f10d 08df 	add.w	r8, sp, #223	; 0xdf
 800496a:	f88d 30df 	strb.w	r3, [sp, #223]	; 0xdf
 800496e:	9510      	str	r5, [sp, #64]	; 0x40
 8004970:	e427      	b.n	80041c2 <_svfprintf_r+0x272>
 8004972:	9813      	ldr	r0, [sp, #76]	; 0x4c
 8004974:	990d      	ldr	r1, [sp, #52]	; 0x34
 8004976:	1a45      	subs	r5, r0, r1
 8004978:	2d00      	cmp	r5, #0
 800497a:	f77f acb4 	ble.w	80042e6 <_svfprintf_r+0x396>
 800497e:	2d10      	cmp	r5, #16
 8004980:	9b2c      	ldr	r3, [sp, #176]	; 0xb0
 8004982:	bfdc      	itt	le
 8004984:	4a8c      	ldrle	r2, [pc, #560]	; (8004bb8 <_svfprintf_r+0xc68>)
 8004986:	920f      	strle	r2, [sp, #60]	; 0x3c
 8004988:	dd24      	ble.n	80049d4 <_svfprintf_r+0xa84>
 800498a:	488b      	ldr	r0, [pc, #556]	; (8004bb8 <_svfprintf_r+0xc68>)
 800498c:	4622      	mov	r2, r4
 800498e:	f04f 0b10 	mov.w	fp, #16
 8004992:	f8dd a038 	ldr.w	sl, [sp, #56]	; 0x38
 8004996:	9c0b      	ldr	r4, [sp, #44]	; 0x2c
 8004998:	900f      	str	r0, [sp, #60]	; 0x3c
 800499a:	e002      	b.n	80049a2 <_svfprintf_r+0xa52>
 800499c:	3d10      	subs	r5, #16
 800499e:	2d10      	cmp	r5, #16
 80049a0:	dd17      	ble.n	80049d2 <_svfprintf_r+0xa82>
 80049a2:	3301      	adds	r3, #1
 80049a4:	3210      	adds	r2, #16
 80049a6:	2b07      	cmp	r3, #7
 80049a8:	e887 0840 	stmia.w	r7, {r6, fp}
 80049ac:	932c      	str	r3, [sp, #176]	; 0xb0
 80049ae:	f107 0708 	add.w	r7, r7, #8
 80049b2:	922d      	str	r2, [sp, #180]	; 0xb4
 80049b4:	ddf2      	ble.n	800499c <_svfprintf_r+0xa4c>
 80049b6:	4650      	mov	r0, sl
 80049b8:	4621      	mov	r1, r4
 80049ba:	aa2b      	add	r2, sp, #172	; 0xac
 80049bc:	af38      	add	r7, sp, #224	; 0xe0
 80049be:	f002 ff6b 	bl	8007898 <__ssprint_r>
 80049c2:	2800      	cmp	r0, #0
 80049c4:	f47f aba9 	bne.w	800411a <_svfprintf_r+0x1ca>
 80049c8:	3d10      	subs	r5, #16
 80049ca:	9a2d      	ldr	r2, [sp, #180]	; 0xb4
 80049cc:	2d10      	cmp	r5, #16
 80049ce:	9b2c      	ldr	r3, [sp, #176]	; 0xb0
 80049d0:	dce7      	bgt.n	80049a2 <_svfprintf_r+0xa52>
 80049d2:	4614      	mov	r4, r2
 80049d4:	3301      	adds	r3, #1
 80049d6:	990f      	ldr	r1, [sp, #60]	; 0x3c
 80049d8:	2b07      	cmp	r3, #7
 80049da:	442c      	add	r4, r5
 80049dc:	932c      	str	r3, [sp, #176]	; 0xb0
 80049de:	e887 0022 	stmia.w	r7, {r1, r5}
 80049e2:	bfd8      	it	le
 80049e4:	3708      	addle	r7, #8
 80049e6:	942d      	str	r4, [sp, #180]	; 0xb4
 80049e8:	f77f ac7d 	ble.w	80042e6 <_svfprintf_r+0x396>
 80049ec:	980e      	ldr	r0, [sp, #56]	; 0x38
 80049ee:	aa2b      	add	r2, sp, #172	; 0xac
 80049f0:	990b      	ldr	r1, [sp, #44]	; 0x2c
 80049f2:	f002 ff51 	bl	8007898 <__ssprint_r>
 80049f6:	2800      	cmp	r0, #0
 80049f8:	f47f ab8f 	bne.w	800411a <_svfprintf_r+0x1ca>
 80049fc:	9c2d      	ldr	r4, [sp, #180]	; 0xb4
 80049fe:	af38      	add	r7, sp, #224	; 0xe0
 8004a00:	e471      	b.n	80042e6 <_svfprintf_r+0x396>
 8004a02:	9d11      	ldr	r5, [sp, #68]	; 0x44
 8004a04:	9b2c      	ldr	r3, [sp, #176]	; 0xb0
 8004a06:	2d01      	cmp	r5, #1
 8004a08:	f340 81e2 	ble.w	8004dd0 <_svfprintf_r+0xe80>
 8004a0c:	2101      	movs	r1, #1
 8004a0e:	1c62      	adds	r2, r4, #1
 8004a10:	440b      	add	r3, r1
 8004a12:	f8c7 8000 	str.w	r8, [r7]
 8004a16:	2b07      	cmp	r3, #7
 8004a18:	6079      	str	r1, [r7, #4]
 8004a1a:	922d      	str	r2, [sp, #180]	; 0xb4
 8004a1c:	bfd8      	it	le
 8004a1e:	3708      	addle	r7, #8
 8004a20:	932c      	str	r3, [sp, #176]	; 0xb0
 8004a22:	f300 81f4 	bgt.w	8004e0e <_svfprintf_r+0xebe>
 8004a26:	9d1a      	ldr	r5, [sp, #104]	; 0x68
 8004a28:	1c5c      	adds	r4, r3, #1
 8004a2a:	f8dd a074 	ldr.w	sl, [sp, #116]	; 0x74
 8004a2e:	2c07      	cmp	r4, #7
 8004a30:	942c      	str	r4, [sp, #176]	; 0xb0
 8004a32:	603d      	str	r5, [r7, #0]
 8004a34:	4492      	add	sl, r2
 8004a36:	9d1d      	ldr	r5, [sp, #116]	; 0x74
 8004a38:	f8cd a0b4 	str.w	sl, [sp, #180]	; 0xb4
 8004a3c:	607d      	str	r5, [r7, #4]
 8004a3e:	bfd8      	it	le
 8004a40:	3708      	addle	r7, #8
 8004a42:	f300 81d7 	bgt.w	8004df4 <_svfprintf_r+0xea4>
 8004a46:	981b      	ldr	r0, [sp, #108]	; 0x6c
 8004a48:	2200      	movs	r2, #0
 8004a4a:	2300      	movs	r3, #0
 8004a4c:	991c      	ldr	r1, [sp, #112]	; 0x70
 8004a4e:	f004 fee9 	bl	8009824 <__aeabi_dcmpeq>
 8004a52:	2800      	cmp	r0, #0
 8004a54:	f040 80b2 	bne.w	8004bbc <_svfprintf_r+0xc6c>
 8004a58:	3401      	adds	r4, #1
 8004a5a:	9d11      	ldr	r5, [sp, #68]	; 0x44
 8004a5c:	2c07      	cmp	r4, #7
 8004a5e:	f108 0201 	add.w	r2, r8, #1
 8004a62:	f105 33ff 	add.w	r3, r5, #4294967295
 8004a66:	942c      	str	r4, [sp, #176]	; 0xb0
 8004a68:	449a      	add	sl, r3
 8004a6a:	603a      	str	r2, [r7, #0]
 8004a6c:	f8cd a0b4 	str.w	sl, [sp, #180]	; 0xb4
 8004a70:	607b      	str	r3, [r7, #4]
 8004a72:	f300 80e4 	bgt.w	8004c3e <_svfprintf_r+0xcee>
 8004a76:	3708      	adds	r7, #8
 8004a78:	1c63      	adds	r3, r4, #1
 8004a7a:	9d1e      	ldr	r5, [sp, #120]	; 0x78
 8004a7c:	9c1e      	ldr	r4, [sp, #120]	; 0x78
 8004a7e:	2b07      	cmp	r3, #7
 8004a80:	aa27      	add	r2, sp, #156	; 0x9c
 8004a82:	932c      	str	r3, [sp, #176]	; 0xb0
 8004a84:	4454      	add	r4, sl
 8004a86:	e887 0024 	stmia.w	r7, {r2, r5}
 8004a8a:	942d      	str	r4, [sp, #180]	; 0xb4
 8004a8c:	f77f ac86 	ble.w	800439c <_svfprintf_r+0x44c>
 8004a90:	980e      	ldr	r0, [sp, #56]	; 0x38
 8004a92:	aa2b      	add	r2, sp, #172	; 0xac
 8004a94:	990b      	ldr	r1, [sp, #44]	; 0x2c
 8004a96:	f002 feff 	bl	8007898 <__ssprint_r>
 8004a9a:	2800      	cmp	r0, #0
 8004a9c:	f47f ab3d 	bne.w	800411a <_svfprintf_r+0x1ca>
 8004aa0:	9c2d      	ldr	r4, [sp, #180]	; 0xb4
 8004aa2:	af38      	add	r7, sp, #224	; 0xe0
 8004aa4:	e47b      	b.n	800439e <_svfprintf_r+0x44e>
 8004aa6:	980e      	ldr	r0, [sp, #56]	; 0x38
 8004aa8:	aa2b      	add	r2, sp, #172	; 0xac
 8004aaa:	990b      	ldr	r1, [sp, #44]	; 0x2c
 8004aac:	f002 fef4 	bl	8007898 <__ssprint_r>
 8004ab0:	2800      	cmp	r0, #0
 8004ab2:	f43f acc3 	beq.w	800443c <_svfprintf_r+0x4ec>
 8004ab6:	f7ff bb30 	b.w	800411a <_svfprintf_r+0x1ca>
 8004aba:	9210      	str	r2, [sp, #64]	; 0x40
 8004abc:	f10d 08e0 	add.w	r8, sp, #224	; 0xe0
 8004ac0:	f7ff bb7f 	b.w	80041c2 <_svfprintf_r+0x272>
 8004ac4:	980e      	ldr	r0, [sp, #56]	; 0x38
 8004ac6:	aa2b      	add	r2, sp, #172	; 0xac
 8004ac8:	990b      	ldr	r1, [sp, #44]	; 0x2c
 8004aca:	f002 fee5 	bl	8007898 <__ssprint_r>
 8004ace:	2800      	cmp	r0, #0
 8004ad0:	f47f ab23 	bne.w	800411a <_svfprintf_r+0x1ca>
 8004ad4:	9c2d      	ldr	r4, [sp, #180]	; 0xb4
 8004ad6:	af38      	add	r7, sp, #224	; 0xe0
 8004ad8:	f7ff bbf2 	b.w	80042c0 <_svfprintf_r+0x370>
 8004adc:	980e      	ldr	r0, [sp, #56]	; 0x38
 8004ade:	aa2b      	add	r2, sp, #172	; 0xac
 8004ae0:	990b      	ldr	r1, [sp, #44]	; 0x2c
 8004ae2:	f002 fed9 	bl	8007898 <__ssprint_r>
 8004ae6:	2800      	cmp	r0, #0
 8004ae8:	f47f ab17 	bne.w	800411a <_svfprintf_r+0x1ca>
 8004aec:	9c2d      	ldr	r4, [sp, #180]	; 0xb4
 8004aee:	af38      	add	r7, sp, #224	; 0xe0
 8004af0:	f7ff bbf6 	b.w	80042e0 <_svfprintf_r+0x390>
 8004af4:	2302      	movs	r3, #2
 8004af6:	f7ff bb2c 	b.w	8004152 <_svfprintf_r+0x202>
 8004afa:	9b25      	ldr	r3, [sp, #148]	; 0x94
 8004afc:	2b00      	cmp	r3, #0
 8004afe:	f340 81ff 	ble.w	8004f00 <_svfprintf_r+0xfb0>
 8004b02:	9d11      	ldr	r5, [sp, #68]	; 0x44
 8004b04:	9818      	ldr	r0, [sp, #96]	; 0x60
 8004b06:	9911      	ldr	r1, [sp, #68]	; 0x44
 8004b08:	4285      	cmp	r5, r0
 8004b0a:	bfa8      	it	ge
 8004b0c:	4605      	movge	r5, r0
 8004b0e:	2d00      	cmp	r5, #0
 8004b10:	4441      	add	r1, r8
 8004b12:	910c      	str	r1, [sp, #48]	; 0x30
 8004b14:	dd0c      	ble.n	8004b30 <_svfprintf_r+0xbe0>
 8004b16:	9b2c      	ldr	r3, [sp, #176]	; 0xb0
 8004b18:	442c      	add	r4, r5
 8004b1a:	f8c7 8000 	str.w	r8, [r7]
 8004b1e:	3301      	adds	r3, #1
 8004b20:	607d      	str	r5, [r7, #4]
 8004b22:	2b07      	cmp	r3, #7
 8004b24:	942d      	str	r4, [sp, #180]	; 0xb4
 8004b26:	932c      	str	r3, [sp, #176]	; 0xb0
 8004b28:	bfd8      	it	le
 8004b2a:	3708      	addle	r7, #8
 8004b2c:	f300 8343 	bgt.w	80051b6 <_svfprintf_r+0x1266>
 8004b30:	9a18      	ldr	r2, [sp, #96]	; 0x60
 8004b32:	ea25 75e5 	bic.w	r5, r5, r5, asr #31
 8004b36:	ebc5 0a02 	rsb	sl, r5, r2
 8004b3a:	f1ba 0f00 	cmp.w	sl, #0
 8004b3e:	f340 80dd 	ble.w	8004cfc <_svfprintf_r+0xdac>
 8004b42:	f1ba 0f10 	cmp.w	sl, #16
 8004b46:	9b2c      	ldr	r3, [sp, #176]	; 0xb0
 8004b48:	bfdc      	itt	le
 8004b4a:	4d1b      	ldrle	r5, [pc, #108]	; (8004bb8 <_svfprintf_r+0xc68>)
 8004b4c:	950f      	strle	r5, [sp, #60]	; 0x3c
 8004b4e:	f340 80c0 	ble.w	8004cd2 <_svfprintf_r+0xd82>
 8004b52:	4d19      	ldr	r5, [pc, #100]	; (8004bb8 <_svfprintf_r+0xc68>)
 8004b54:	4622      	mov	r2, r4
 8004b56:	f04f 0b10 	mov.w	fp, #16
 8004b5a:	9c0b      	ldr	r4, [sp, #44]	; 0x2c
 8004b5c:	950f      	str	r5, [sp, #60]	; 0x3c
 8004b5e:	9d0e      	ldr	r5, [sp, #56]	; 0x38
 8004b60:	e005      	b.n	8004b6e <_svfprintf_r+0xc1e>
 8004b62:	f1aa 0a10 	sub.w	sl, sl, #16
 8004b66:	f1ba 0f10 	cmp.w	sl, #16
 8004b6a:	f340 80b1 	ble.w	8004cd0 <_svfprintf_r+0xd80>
 8004b6e:	3301      	adds	r3, #1
 8004b70:	3210      	adds	r2, #16
 8004b72:	2b07      	cmp	r3, #7
 8004b74:	e887 0840 	stmia.w	r7, {r6, fp}
 8004b78:	932c      	str	r3, [sp, #176]	; 0xb0
 8004b7a:	f107 0708 	add.w	r7, r7, #8
 8004b7e:	922d      	str	r2, [sp, #180]	; 0xb4
 8004b80:	ddef      	ble.n	8004b62 <_svfprintf_r+0xc12>
 8004b82:	4628      	mov	r0, r5
 8004b84:	4621      	mov	r1, r4
 8004b86:	aa2b      	add	r2, sp, #172	; 0xac
 8004b88:	af38      	add	r7, sp, #224	; 0xe0
 8004b8a:	f002 fe85 	bl	8007898 <__ssprint_r>
 8004b8e:	2800      	cmp	r0, #0
 8004b90:	f47f aac3 	bne.w	800411a <_svfprintf_r+0x1ca>
 8004b94:	9a2d      	ldr	r2, [sp, #180]	; 0xb4
 8004b96:	9b2c      	ldr	r3, [sp, #176]	; 0xb0
 8004b98:	e7e3      	b.n	8004b62 <_svfprintf_r+0xc12>
 8004b9a:	2d00      	cmp	r5, #0
 8004b9c:	bf08      	it	eq
 8004b9e:	2c0a      	cmpeq	r4, #10
 8004ba0:	f080 8141 	bcs.w	8004e26 <_svfprintf_r+0xed6>
 8004ba4:	9d21      	ldr	r5, [sp, #132]	; 0x84
 8004ba6:	3430      	adds	r4, #48	; 0x30
 8004ba8:	f10d 08df 	add.w	r8, sp, #223	; 0xdf
 8004bac:	f88d 40df 	strb.w	r4, [sp, #223]	; 0xdf
 8004bb0:	9510      	str	r5, [sp, #64]	; 0x40
 8004bb2:	f7ff bb06 	b.w	80041c2 <_svfprintf_r+0x272>
 8004bb6:	bf00      	nop
 8004bb8:	0800a034 	stmdaeq	r0, {r2, r4, r5, sp, pc}
 8004bbc:	9d11      	ldr	r5, [sp, #68]	; 0x44
 8004bbe:	f105 38ff 	add.w	r8, r5, #4294967295
 8004bc2:	f1b8 0f00 	cmp.w	r8, #0
 8004bc6:	f77f af57 	ble.w	8004a78 <_svfprintf_r+0xb28>
 8004bca:	f1b8 0f10 	cmp.w	r8, #16
 8004bce:	bfdc      	itt	le
 8004bd0:	4ba8      	ldrle	r3, [pc, #672]	; (8004e74 <_svfprintf_r+0xf24>)
 8004bd2:	930f      	strle	r3, [sp, #60]	; 0x3c
 8004bd4:	dd28      	ble.n	8004c28 <_svfprintf_r+0xcd8>
 8004bd6:	4da7      	ldr	r5, [pc, #668]	; (8004e74 <_svfprintf_r+0xf24>)
 8004bd8:	4653      	mov	r3, sl
 8004bda:	f04f 0b10 	mov.w	fp, #16
 8004bde:	f8dd a02c 	ldr.w	sl, [sp, #44]	; 0x2c
 8004be2:	950f      	str	r5, [sp, #60]	; 0x3c
 8004be4:	9d0e      	ldr	r5, [sp, #56]	; 0x38
 8004be6:	e004      	b.n	8004bf2 <_svfprintf_r+0xca2>
 8004be8:	f1a8 0810 	sub.w	r8, r8, #16
 8004bec:	f1b8 0f10 	cmp.w	r8, #16
 8004bf0:	dd19      	ble.n	8004c26 <_svfprintf_r+0xcd6>
 8004bf2:	3401      	adds	r4, #1
 8004bf4:	3310      	adds	r3, #16
 8004bf6:	2c07      	cmp	r4, #7
 8004bf8:	e887 0840 	stmia.w	r7, {r6, fp}
 8004bfc:	942c      	str	r4, [sp, #176]	; 0xb0
 8004bfe:	f107 0708 	add.w	r7, r7, #8
 8004c02:	932d      	str	r3, [sp, #180]	; 0xb4
 8004c04:	ddf0      	ble.n	8004be8 <_svfprintf_r+0xc98>
 8004c06:	4628      	mov	r0, r5
 8004c08:	4651      	mov	r1, sl
 8004c0a:	aa2b      	add	r2, sp, #172	; 0xac
 8004c0c:	af38      	add	r7, sp, #224	; 0xe0
 8004c0e:	f002 fe43 	bl	8007898 <__ssprint_r>
 8004c12:	2800      	cmp	r0, #0
 8004c14:	f47f aa81 	bne.w	800411a <_svfprintf_r+0x1ca>
 8004c18:	f1a8 0810 	sub.w	r8, r8, #16
 8004c1c:	9b2d      	ldr	r3, [sp, #180]	; 0xb4
 8004c1e:	f1b8 0f10 	cmp.w	r8, #16
 8004c22:	9c2c      	ldr	r4, [sp, #176]	; 0xb0
 8004c24:	dce5      	bgt.n	8004bf2 <_svfprintf_r+0xca2>
 8004c26:	469a      	mov	sl, r3
 8004c28:	3401      	adds	r4, #1
 8004c2a:	9b0f      	ldr	r3, [sp, #60]	; 0x3c
 8004c2c:	2c07      	cmp	r4, #7
 8004c2e:	44c2      	add	sl, r8
 8004c30:	942c      	str	r4, [sp, #176]	; 0xb0
 8004c32:	f8cd a0b4 	str.w	sl, [sp, #180]	; 0xb4
 8004c36:	e887 0108 	stmia.w	r7, {r3, r8}
 8004c3a:	f77f af1c 	ble.w	8004a76 <_svfprintf_r+0xb26>
 8004c3e:	980e      	ldr	r0, [sp, #56]	; 0x38
 8004c40:	aa2b      	add	r2, sp, #172	; 0xac
 8004c42:	990b      	ldr	r1, [sp, #44]	; 0x2c
 8004c44:	f002 fe28 	bl	8007898 <__ssprint_r>
 8004c48:	2800      	cmp	r0, #0
 8004c4a:	f47f aa66 	bne.w	800411a <_svfprintf_r+0x1ca>
 8004c4e:	f8dd a0b4 	ldr.w	sl, [sp, #180]	; 0xb4
 8004c52:	af38      	add	r7, sp, #224	; 0xe0
 8004c54:	9c2c      	ldr	r4, [sp, #176]	; 0xb0
 8004c56:	e70f      	b.n	8004a78 <_svfprintf_r+0xb28>
 8004c58:	4d86      	ldr	r5, [pc, #536]	; (8004e74 <_svfprintf_r+0xf24>)
 8004c5a:	950f      	str	r5, [sp, #60]	; 0x3c
 8004c5c:	3301      	adds	r3, #1
 8004c5e:	9d0f      	ldr	r5, [sp, #60]	; 0x3c
 8004c60:	2b07      	cmp	r3, #7
 8004c62:	4444      	add	r4, r8
 8004c64:	932c      	str	r3, [sp, #176]	; 0xb0
 8004c66:	942d      	str	r4, [sp, #180]	; 0xb4
 8004c68:	e887 0120 	stmia.w	r7, {r5, r8}
 8004c6c:	f77f ab96 	ble.w	800439c <_svfprintf_r+0x44c>
 8004c70:	e70e      	b.n	8004a90 <_svfprintf_r+0xb40>
 8004c72:	9d14      	ldr	r5, [sp, #80]	; 0x50
 8004c74:	3504      	adds	r5, #4
 8004c76:	f855 4c04 	ldr.w	r4, [r5, #-4]
 8004c7a:	9514      	str	r5, [sp, #80]	; 0x50
 8004c7c:	2500      	movs	r5, #0
 8004c7e:	e50e      	b.n	800469e <_svfprintf_r+0x74e>
 8004c80:	9d14      	ldr	r5, [sp, #80]	; 0x50
 8004c82:	2301      	movs	r3, #1
 8004c84:	3504      	adds	r5, #4
 8004c86:	f855 4c04 	ldr.w	r4, [r5, #-4]
 8004c8a:	9514      	str	r5, [sp, #80]	; 0x50
 8004c8c:	2500      	movs	r5, #0
 8004c8e:	f7ff ba60 	b.w	8004152 <_svfprintf_r+0x202>
 8004c92:	9d14      	ldr	r5, [sp, #80]	; 0x50
 8004c94:	3504      	adds	r5, #4
 8004c96:	f855 4c04 	ldr.w	r4, [r5, #-4]
 8004c9a:	9514      	str	r5, [sp, #80]	; 0x50
 8004c9c:	2500      	movs	r5, #0
 8004c9e:	f7ff ba58 	b.w	8004152 <_svfprintf_r+0x202>
 8004ca2:	9d14      	ldr	r5, [sp, #80]	; 0x50
 8004ca4:	3504      	adds	r5, #4
 8004ca6:	f855 4c04 	ldr.w	r4, [r5, #-4]
 8004caa:	9514      	str	r5, [sp, #80]	; 0x50
 8004cac:	4622      	mov	r2, r4
 8004cae:	17e5      	asrs	r5, r4, #31
 8004cb0:	462b      	mov	r3, r5
 8004cb2:	2a00      	cmp	r2, #0
 8004cb4:	f173 0000 	sbcs.w	r0, r3, #0
 8004cb8:	f6bf ac45 	bge.w	8004546 <_svfprintf_r+0x5f6>
 8004cbc:	f04f 0a2d 	mov.w	sl, #45	; 0x2d
 8004cc0:	4264      	negs	r4, r4
 8004cc2:	eb65 0545 	sbc.w	r5, r5, r5, lsl #1
 8004cc6:	f88d a08f 	strb.w	sl, [sp, #143]	; 0x8f
 8004cca:	2301      	movs	r3, #1
 8004ccc:	f7ff ba45 	b.w	800415a <_svfprintf_r+0x20a>
 8004cd0:	4614      	mov	r4, r2
 8004cd2:	3301      	adds	r3, #1
 8004cd4:	9d0f      	ldr	r5, [sp, #60]	; 0x3c
 8004cd6:	2b07      	cmp	r3, #7
 8004cd8:	4454      	add	r4, sl
 8004cda:	932c      	str	r3, [sp, #176]	; 0xb0
 8004cdc:	e887 0420 	stmia.w	r7, {r5, sl}
 8004ce0:	bfd8      	it	le
 8004ce2:	3708      	addle	r7, #8
 8004ce4:	942d      	str	r4, [sp, #180]	; 0xb4
 8004ce6:	dd09      	ble.n	8004cfc <_svfprintf_r+0xdac>
 8004ce8:	980e      	ldr	r0, [sp, #56]	; 0x38
 8004cea:	aa2b      	add	r2, sp, #172	; 0xac
 8004cec:	990b      	ldr	r1, [sp, #44]	; 0x2c
 8004cee:	f002 fdd3 	bl	8007898 <__ssprint_r>
 8004cf2:	2800      	cmp	r0, #0
 8004cf4:	f47f aa11 	bne.w	800411a <_svfprintf_r+0x1ca>
 8004cf8:	9c2d      	ldr	r4, [sp, #180]	; 0xb4
 8004cfa:	af38      	add	r7, sp, #224	; 0xe0
 8004cfc:	9d18      	ldr	r5, [sp, #96]	; 0x60
 8004cfe:	9b25      	ldr	r3, [sp, #148]	; 0x94
 8004d00:	44a8      	add	r8, r5
 8004d02:	9d11      	ldr	r5, [sp, #68]	; 0x44
 8004d04:	42ab      	cmp	r3, r5
 8004d06:	db49      	blt.n	8004d9c <_svfprintf_r+0xe4c>
 8004d08:	9d0a      	ldr	r5, [sp, #40]	; 0x28
 8004d0a:	07e9      	lsls	r1, r5, #31
 8004d0c:	d446      	bmi.n	8004d9c <_svfprintf_r+0xe4c>
 8004d0e:	980c      	ldr	r0, [sp, #48]	; 0x30
 8004d10:	9911      	ldr	r1, [sp, #68]	; 0x44
 8004d12:	ebc8 0500 	rsb	r5, r8, r0
 8004d16:	1acb      	subs	r3, r1, r3
 8004d18:	42ab      	cmp	r3, r5
 8004d1a:	bfb8      	it	lt
 8004d1c:	461d      	movlt	r5, r3
 8004d1e:	2d00      	cmp	r5, #0
 8004d20:	dd0c      	ble.n	8004d3c <_svfprintf_r+0xdec>
 8004d22:	9a2c      	ldr	r2, [sp, #176]	; 0xb0
 8004d24:	442c      	add	r4, r5
 8004d26:	f8c7 8000 	str.w	r8, [r7]
 8004d2a:	3201      	adds	r2, #1
 8004d2c:	607d      	str	r5, [r7, #4]
 8004d2e:	2a07      	cmp	r2, #7
 8004d30:	942d      	str	r4, [sp, #180]	; 0xb4
 8004d32:	922c      	str	r2, [sp, #176]	; 0xb0
 8004d34:	bfd8      	it	le
 8004d36:	3708      	addle	r7, #8
 8004d38:	f300 824a 	bgt.w	80051d0 <_svfprintf_r+0x1280>
 8004d3c:	ea25 75e5 	bic.w	r5, r5, r5, asr #31
 8004d40:	ebc5 0803 	rsb	r8, r5, r3
 8004d44:	f1b8 0f00 	cmp.w	r8, #0
 8004d48:	f77f ab29 	ble.w	800439e <_svfprintf_r+0x44e>
 8004d4c:	f1b8 0f10 	cmp.w	r8, #16
 8004d50:	9b2c      	ldr	r3, [sp, #176]	; 0xb0
 8004d52:	dd81      	ble.n	8004c58 <_svfprintf_r+0xd08>
 8004d54:	4d47      	ldr	r5, [pc, #284]	; (8004e74 <_svfprintf_r+0xf24>)
 8004d56:	f04f 0a10 	mov.w	sl, #16
 8004d5a:	f8dd b02c 	ldr.w	fp, [sp, #44]	; 0x2c
 8004d5e:	950f      	str	r5, [sp, #60]	; 0x3c
 8004d60:	9d0e      	ldr	r5, [sp, #56]	; 0x38
 8004d62:	e005      	b.n	8004d70 <_svfprintf_r+0xe20>
 8004d64:	f1a8 0810 	sub.w	r8, r8, #16
 8004d68:	f1b8 0f10 	cmp.w	r8, #16
 8004d6c:	f77f af76 	ble.w	8004c5c <_svfprintf_r+0xd0c>
 8004d70:	3301      	adds	r3, #1
 8004d72:	3410      	adds	r4, #16
 8004d74:	2b07      	cmp	r3, #7
 8004d76:	e887 0440 	stmia.w	r7, {r6, sl}
 8004d7a:	932c      	str	r3, [sp, #176]	; 0xb0
 8004d7c:	f107 0708 	add.w	r7, r7, #8
 8004d80:	942d      	str	r4, [sp, #180]	; 0xb4
 8004d82:	ddef      	ble.n	8004d64 <_svfprintf_r+0xe14>
 8004d84:	4628      	mov	r0, r5
 8004d86:	4659      	mov	r1, fp
 8004d88:	aa2b      	add	r2, sp, #172	; 0xac
 8004d8a:	af38      	add	r7, sp, #224	; 0xe0
 8004d8c:	f002 fd84 	bl	8007898 <__ssprint_r>
 8004d90:	2800      	cmp	r0, #0
 8004d92:	f47f a9c2 	bne.w	800411a <_svfprintf_r+0x1ca>
 8004d96:	9c2d      	ldr	r4, [sp, #180]	; 0xb4
 8004d98:	9b2c      	ldr	r3, [sp, #176]	; 0xb0
 8004d9a:	e7e3      	b.n	8004d64 <_svfprintf_r+0xe14>
 8004d9c:	9d1d      	ldr	r5, [sp, #116]	; 0x74
 8004d9e:	9a2c      	ldr	r2, [sp, #176]	; 0xb0
 8004da0:	442c      	add	r4, r5
 8004da2:	9d1a      	ldr	r5, [sp, #104]	; 0x68
 8004da4:	3201      	adds	r2, #1
 8004da6:	942d      	str	r4, [sp, #180]	; 0xb4
 8004da8:	2a07      	cmp	r2, #7
 8004daa:	922c      	str	r2, [sp, #176]	; 0xb0
 8004dac:	603d      	str	r5, [r7, #0]
 8004dae:	9d1d      	ldr	r5, [sp, #116]	; 0x74
 8004db0:	607d      	str	r5, [r7, #4]
 8004db2:	bfd8      	it	le
 8004db4:	3708      	addle	r7, #8
 8004db6:	ddaa      	ble.n	8004d0e <_svfprintf_r+0xdbe>
 8004db8:	980e      	ldr	r0, [sp, #56]	; 0x38
 8004dba:	aa2b      	add	r2, sp, #172	; 0xac
 8004dbc:	990b      	ldr	r1, [sp, #44]	; 0x2c
 8004dbe:	f002 fd6b 	bl	8007898 <__ssprint_r>
 8004dc2:	2800      	cmp	r0, #0
 8004dc4:	f47f a9a9 	bne.w	800411a <_svfprintf_r+0x1ca>
 8004dc8:	9b25      	ldr	r3, [sp, #148]	; 0x94
 8004dca:	af38      	add	r7, sp, #224	; 0xe0
 8004dcc:	9c2d      	ldr	r4, [sp, #180]	; 0xb4
 8004dce:	e79e      	b.n	8004d0e <_svfprintf_r+0xdbe>
 8004dd0:	9d0a      	ldr	r5, [sp, #40]	; 0x28
 8004dd2:	07ea      	lsls	r2, r5, #31
 8004dd4:	f53f ae1a 	bmi.w	8004a0c <_svfprintf_r+0xabc>
 8004dd8:	2201      	movs	r2, #1
 8004dda:	f104 0a01 	add.w	sl, r4, #1
 8004dde:	189c      	adds	r4, r3, r2
 8004de0:	f8c7 8000 	str.w	r8, [r7]
 8004de4:	2c07      	cmp	r4, #7
 8004de6:	f8cd a0b4 	str.w	sl, [sp, #180]	; 0xb4
 8004dea:	942c      	str	r4, [sp, #176]	; 0xb0
 8004dec:	607a      	str	r2, [r7, #4]
 8004dee:	f77f ae42 	ble.w	8004a76 <_svfprintf_r+0xb26>
 8004df2:	e724      	b.n	8004c3e <_svfprintf_r+0xcee>
 8004df4:	980e      	ldr	r0, [sp, #56]	; 0x38
 8004df6:	aa2b      	add	r2, sp, #172	; 0xac
 8004df8:	990b      	ldr	r1, [sp, #44]	; 0x2c
 8004dfa:	f002 fd4d 	bl	8007898 <__ssprint_r>
 8004dfe:	2800      	cmp	r0, #0
 8004e00:	f47f a98b 	bne.w	800411a <_svfprintf_r+0x1ca>
 8004e04:	f8dd a0b4 	ldr.w	sl, [sp, #180]	; 0xb4
 8004e08:	af38      	add	r7, sp, #224	; 0xe0
 8004e0a:	9c2c      	ldr	r4, [sp, #176]	; 0xb0
 8004e0c:	e61b      	b.n	8004a46 <_svfprintf_r+0xaf6>
 8004e0e:	980e      	ldr	r0, [sp, #56]	; 0x38
 8004e10:	aa2b      	add	r2, sp, #172	; 0xac
 8004e12:	990b      	ldr	r1, [sp, #44]	; 0x2c
 8004e14:	f002 fd40 	bl	8007898 <__ssprint_r>
 8004e18:	2800      	cmp	r0, #0
 8004e1a:	f47f a97e 	bne.w	800411a <_svfprintf_r+0x1ca>
 8004e1e:	9a2d      	ldr	r2, [sp, #180]	; 0xb4
 8004e20:	af38      	add	r7, sp, #224	; 0xe0
 8004e22:	9b2c      	ldr	r3, [sp, #176]	; 0xb0
 8004e24:	e5ff      	b.n	8004a26 <_svfprintf_r+0xad6>
 8004e26:	f10d 0bdf 	add.w	fp, sp, #223	; 0xdf
 8004e2a:	4620      	mov	r0, r4
 8004e2c:	4629      	mov	r1, r5
 8004e2e:	220a      	movs	r2, #10
 8004e30:	2300      	movs	r3, #0
 8004e32:	f004 fd71 	bl	8009918 <__aeabi_uldivmod>
 8004e36:	46d8      	mov	r8, fp
 8004e38:	4620      	mov	r0, r4
 8004e3a:	4629      	mov	r1, r5
 8004e3c:	2300      	movs	r3, #0
 8004e3e:	f10b 3bff 	add.w	fp, fp, #4294967295
 8004e42:	3230      	adds	r2, #48	; 0x30
 8004e44:	f888 2000 	strb.w	r2, [r8]
 8004e48:	220a      	movs	r2, #10
 8004e4a:	f004 fd65 	bl	8009918 <__aeabi_uldivmod>
 8004e4e:	4604      	mov	r4, r0
 8004e50:	460d      	mov	r5, r1
 8004e52:	ea54 0005 	orrs.w	r0, r4, r5
 8004e56:	d1e8      	bne.n	8004e2a <_svfprintf_r+0xeda>
 8004e58:	f7ff b9af 	b.w	80041ba <_svfprintf_r+0x26a>
 8004e5c:	2b30      	cmp	r3, #48	; 0x30
 8004e5e:	f43f a9ac 	beq.w	80041ba <_svfprintf_r+0x26a>
 8004e62:	9c09      	ldr	r4, [sp, #36]	; 0x24
 8004e64:	2330      	movs	r3, #48	; 0x30
 8004e66:	4690      	mov	r8, r2
 8004e68:	f801 3c01 	strb.w	r3, [r1, #-1]
 8004e6c:	1aa4      	subs	r4, r4, r2
 8004e6e:	9410      	str	r4, [sp, #64]	; 0x40
 8004e70:	f7ff b9a7 	b.w	80041c2 <_svfprintf_r+0x272>
 8004e74:	0800a034 	stmdaeq	r0, {r2, r4, r5, sp, pc}
 8004e78:	991c      	ldr	r1, [sp, #112]	; 0x70
 8004e7a:	f002 fb83 	bl	8007584 <__fpclassifyd>
 8004e7e:	2800      	cmp	r0, #0
 8004e80:	f040 80ab 	bne.w	8004fda <_svfprintf_r+0x108a>
 8004e84:	2503      	movs	r5, #3
 8004e86:	9c0a      	ldr	r4, [sp, #40]	; 0x28
 8004e88:	f24a 4828 	movw	r8, #42024	; 0xa428
 8004e8c:	f24a 4324 	movw	r3, #42020	; 0xa424
 8004e90:	950d      	str	r5, [sp, #52]	; 0x34
 8004e92:	f6c0 0800 	movt	r8, #2048	; 0x800
 8004e96:	9d16      	ldr	r5, [sp, #88]	; 0x58
 8004e98:	f6c0 0300 	movt	r3, #2048	; 0x800
 8004e9c:	f024 0480 	bic.w	r4, r4, #128	; 0x80
 8004ea0:	900c      	str	r0, [sp, #48]	; 0x30
 8004ea2:	940a      	str	r4, [sp, #40]	; 0x28
 8004ea4:	2d47      	cmp	r5, #71	; 0x47
 8004ea6:	bfd8      	it	le
 8004ea8:	4698      	movle	r8, r3
 8004eaa:	2403      	movs	r4, #3
 8004eac:	9018      	str	r0, [sp, #96]	; 0x60
 8004eae:	9410      	str	r4, [sp, #64]	; 0x40
 8004eb0:	f89d a08f 	ldrb.w	sl, [sp, #143]	; 0x8f
 8004eb4:	f7ff b98d 	b.w	80041d2 <_svfprintf_r+0x282>
 8004eb8:	9c14      	ldr	r4, [sp, #80]	; 0x50
 8004eba:	1de3      	adds	r3, r4, #7
 8004ebc:	f023 0307 	bic.w	r3, r3, #7
 8004ec0:	f103 0508 	add.w	r5, r3, #8
 8004ec4:	9514      	str	r5, [sp, #80]	; 0x50
 8004ec6:	681c      	ldr	r4, [r3, #0]
 8004ec8:	941b      	str	r4, [sp, #108]	; 0x6c
 8004eca:	685b      	ldr	r3, [r3, #4]
 8004ecc:	931c      	str	r3, [sp, #112]	; 0x70
 8004ece:	f7ff bb53 	b.w	8004578 <_svfprintf_r+0x628>
 8004ed2:	9c0a      	ldr	r4, [sp, #40]	; 0x28
 8004ed4:	06e2      	lsls	r2, r4, #27
 8004ed6:	d572      	bpl.n	8004fbe <_svfprintf_r+0x106e>
 8004ed8:	9d14      	ldr	r5, [sp, #80]	; 0x50
 8004eda:	9c12      	ldr	r4, [sp, #72]	; 0x48
 8004edc:	3504      	adds	r5, #4
 8004ede:	f855 3c04 	ldr.w	r3, [r5, #-4]
 8004ee2:	9514      	str	r5, [sp, #80]	; 0x50
 8004ee4:	601c      	str	r4, [r3, #0]
 8004ee6:	f7ff b869 	b.w	8003fbc <_svfprintf_r+0x6c>
 8004eea:	980e      	ldr	r0, [sp, #56]	; 0x38
 8004eec:	aa2b      	add	r2, sp, #172	; 0xac
 8004eee:	990b      	ldr	r1, [sp, #44]	; 0x2c
 8004ef0:	f002 fcd2 	bl	8007898 <__ssprint_r>
 8004ef4:	2800      	cmp	r0, #0
 8004ef6:	f47f a910 	bne.w	800411a <_svfprintf_r+0x1ca>
 8004efa:	9c2d      	ldr	r4, [sp, #180]	; 0xb4
 8004efc:	af38      	add	r7, sp, #224	; 0xe0
 8004efe:	e4de      	b.n	80048be <_svfprintf_r+0x96e>
 8004f00:	9a2c      	ldr	r2, [sp, #176]	; 0xb0
 8004f02:	2101      	movs	r1, #1
 8004f04:	9d17      	ldr	r5, [sp, #92]	; 0x5c
 8004f06:	3401      	adds	r4, #1
 8004f08:	440a      	add	r2, r1
 8004f0a:	942d      	str	r4, [sp, #180]	; 0xb4
 8004f0c:	2a07      	cmp	r2, #7
 8004f0e:	922c      	str	r2, [sp, #176]	; 0xb0
 8004f10:	603d      	str	r5, [r7, #0]
 8004f12:	6079      	str	r1, [r7, #4]
 8004f14:	f300 8112 	bgt.w	800513c <_svfprintf_r+0x11ec>
 8004f18:	3708      	adds	r7, #8
 8004f1a:	4619      	mov	r1, r3
 8004f1c:	b929      	cbnz	r1, 8004f2a <_svfprintf_r+0xfda>
 8004f1e:	9d11      	ldr	r5, [sp, #68]	; 0x44
 8004f20:	b91d      	cbnz	r5, 8004f2a <_svfprintf_r+0xfda>
 8004f22:	9d0a      	ldr	r5, [sp, #40]	; 0x28
 8004f24:	07e8      	lsls	r0, r5, #31
 8004f26:	f57f aa3a 	bpl.w	800439e <_svfprintf_r+0x44e>
 8004f2a:	9b2c      	ldr	r3, [sp, #176]	; 0xb0
 8004f2c:	9a1d      	ldr	r2, [sp, #116]	; 0x74
 8004f2e:	3301      	adds	r3, #1
 8004f30:	9d1d      	ldr	r5, [sp, #116]	; 0x74
 8004f32:	4422      	add	r2, r4
 8004f34:	9c1a      	ldr	r4, [sp, #104]	; 0x68
 8004f36:	2b07      	cmp	r3, #7
 8004f38:	922d      	str	r2, [sp, #180]	; 0xb4
 8004f3a:	607d      	str	r5, [r7, #4]
 8004f3c:	603c      	str	r4, [r7, #0]
 8004f3e:	bfd8      	it	le
 8004f40:	3708      	addle	r7, #8
 8004f42:	932c      	str	r3, [sp, #176]	; 0xb0
 8004f44:	f300 81ba 	bgt.w	80052bc <_svfprintf_r+0x136c>
 8004f48:	f1c1 0a00 	rsb	sl, r1, #0
 8004f4c:	f1ba 0f00 	cmp.w	sl, #0
 8004f50:	f340 8116 	ble.w	8005180 <_svfprintf_r+0x1230>
 8004f54:	f1ba 0f10 	cmp.w	sl, #16
 8004f58:	bfdc      	itt	le
 8004f5a:	4c9c      	ldrle	r4, [pc, #624]	; (80051cc <_svfprintf_r+0x127c>)
 8004f5c:	940f      	strle	r4, [sp, #60]	; 0x3c
 8004f5e:	f340 80f9 	ble.w	8005154 <_svfprintf_r+0x1204>
 8004f62:	4d9a      	ldr	r5, [pc, #616]	; (80051cc <_svfprintf_r+0x127c>)
 8004f64:	2410      	movs	r4, #16
 8004f66:	f8dd b02c 	ldr.w	fp, [sp, #44]	; 0x2c
 8004f6a:	950f      	str	r5, [sp, #60]	; 0x3c
 8004f6c:	9d0e      	ldr	r5, [sp, #56]	; 0x38
 8004f6e:	e005      	b.n	8004f7c <_svfprintf_r+0x102c>
 8004f70:	f1aa 0a10 	sub.w	sl, sl, #16
 8004f74:	f1ba 0f10 	cmp.w	sl, #16
 8004f78:	f340 80ec 	ble.w	8005154 <_svfprintf_r+0x1204>
 8004f7c:	3301      	adds	r3, #1
 8004f7e:	3210      	adds	r2, #16
 8004f80:	2b07      	cmp	r3, #7
 8004f82:	603e      	str	r6, [r7, #0]
 8004f84:	607c      	str	r4, [r7, #4]
 8004f86:	f107 0708 	add.w	r7, r7, #8
 8004f8a:	932c      	str	r3, [sp, #176]	; 0xb0
 8004f8c:	922d      	str	r2, [sp, #180]	; 0xb4
 8004f8e:	ddef      	ble.n	8004f70 <_svfprintf_r+0x1020>
 8004f90:	4628      	mov	r0, r5
 8004f92:	4659      	mov	r1, fp
 8004f94:	aa2b      	add	r2, sp, #172	; 0xac
 8004f96:	af38      	add	r7, sp, #224	; 0xe0
 8004f98:	f002 fc7e 	bl	8007898 <__ssprint_r>
 8004f9c:	2800      	cmp	r0, #0
 8004f9e:	f47f a8bc 	bne.w	800411a <_svfprintf_r+0x1ca>
 8004fa2:	9a2d      	ldr	r2, [sp, #180]	; 0xb4
 8004fa4:	9b2c      	ldr	r3, [sp, #176]	; 0xb0
 8004fa6:	e7e3      	b.n	8004f70 <_svfprintf_r+0x1020>
 8004fa8:	980e      	ldr	r0, [sp, #56]	; 0x38
 8004faa:	aa2b      	add	r2, sp, #172	; 0xac
 8004fac:	990b      	ldr	r1, [sp, #44]	; 0x2c
 8004fae:	f002 fc73 	bl	8007898 <__ssprint_r>
 8004fb2:	2800      	cmp	r0, #0
 8004fb4:	f47f a8b1 	bne.w	800411a <_svfprintf_r+0x1ca>
 8004fb8:	9c2d      	ldr	r4, [sp, #180]	; 0xb4
 8004fba:	af38      	add	r7, sp, #224	; 0xe0
 8004fbc:	e496      	b.n	80048ec <_svfprintf_r+0x99c>
 8004fbe:	9c14      	ldr	r4, [sp, #80]	; 0x50
 8004fc0:	9d0a      	ldr	r5, [sp, #40]	; 0x28
 8004fc2:	3404      	adds	r4, #4
 8004fc4:	f854 3c04 	ldr.w	r3, [r4, #-4]
 8004fc8:	f015 0f40 	tst.w	r5, #64	; 0x40
 8004fcc:	9d12      	ldr	r5, [sp, #72]	; 0x48
 8004fce:	9414      	str	r4, [sp, #80]	; 0x50
 8004fd0:	bf14      	ite	ne
 8004fd2:	801d      	strhne	r5, [r3, #0]
 8004fd4:	601d      	streq	r5, [r3, #0]
 8004fd6:	f7fe bff1 	b.w	8003fbc <_svfprintf_r+0x6c>
 8004fda:	9d0c      	ldr	r5, [sp, #48]	; 0x30
 8004fdc:	9c16      	ldr	r4, [sp, #88]	; 0x58
 8004fde:	3501      	adds	r5, #1
 8004fe0:	f024 0520 	bic.w	r5, r4, #32
 8004fe4:	bf04      	itt	eq
 8004fe6:	2406      	moveq	r4, #6
 8004fe8:	940c      	streq	r4, [sp, #48]	; 0x30
 8004fea:	d006      	beq.n	8004ffa <_svfprintf_r+0x10aa>
 8004fec:	2d47      	cmp	r5, #71	; 0x47
 8004fee:	d104      	bne.n	8004ffa <_svfprintf_r+0x10aa>
 8004ff0:	9c0c      	ldr	r4, [sp, #48]	; 0x30
 8004ff2:	2c00      	cmp	r4, #0
 8004ff4:	bf08      	it	eq
 8004ff6:	2401      	moveq	r4, #1
 8004ff8:	940c      	str	r4, [sp, #48]	; 0x30
 8004ffa:	9b1c      	ldr	r3, [sp, #112]	; 0x70
 8004ffc:	9c0a      	ldr	r4, [sp, #40]	; 0x28
 8004ffe:	2b00      	cmp	r3, #0
 8005000:	f444 7480 	orr.w	r4, r4, #256	; 0x100
 8005004:	940f      	str	r4, [sp, #60]	; 0x3c
 8005006:	bfbd      	ittte	lt
 8005008:	461c      	movlt	r4, r3
 800500a:	f04f 0b2d 	movlt.w	fp, #45	; 0x2d
 800500e:	f104 4a00 	addlt.w	sl, r4, #2147483648	; 0x80000000
 8005012:	f8dd a070 	ldrge.w	sl, [sp, #112]	; 0x70
 8005016:	bfa8      	it	ge
 8005018:	f04f 0b00 	movge.w	fp, #0
 800501c:	f1b5 0446 	subs.w	r4, r5, #70	; 0x46
 8005020:	4261      	negs	r1, r4
 8005022:	4161      	adcs	r1, r4
 8005024:	2900      	cmp	r1, #0
 8005026:	d030      	beq.n	800508a <_svfprintf_r+0x113a>
 8005028:	2003      	movs	r0, #3
 800502a:	9c0c      	ldr	r4, [sp, #48]	; 0x30
 800502c:	4653      	mov	r3, sl
 800502e:	9000      	str	r0, [sp, #0]
 8005030:	a825      	add	r0, sp, #148	; 0x94
 8005032:	9a1b      	ldr	r2, [sp, #108]	; 0x6c
 8005034:	9002      	str	r0, [sp, #8]
 8005036:	a826      	add	r0, sp, #152	; 0x98
 8005038:	9401      	str	r4, [sp, #4]
 800503a:	9003      	str	r0, [sp, #12]
 800503c:	a829      	add	r0, sp, #164	; 0xa4
 800503e:	9004      	str	r0, [sp, #16]
 8005040:	980e      	ldr	r0, [sp, #56]	; 0x38
 8005042:	9107      	str	r1, [sp, #28]
 8005044:	f000 fa86 	bl	8005554 <_dtoa_r>
 8005048:	2d47      	cmp	r5, #71	; 0x47
 800504a:	9907      	ldr	r1, [sp, #28]
 800504c:	4680      	mov	r8, r0
 800504e:	d103      	bne.n	8005058 <_svfprintf_r+0x1108>
 8005050:	9c0a      	ldr	r4, [sp, #40]	; 0x28
 8005052:	07e0      	lsls	r0, r4, #31
 8005054:	f140 80f0 	bpl.w	8005238 <_svfprintf_r+0x12e8>
 8005058:	9c0c      	ldr	r4, [sp, #48]	; 0x30
 800505a:	4444      	add	r4, r8
 800505c:	b351      	cbz	r1, 80050b4 <_svfprintf_r+0x1164>
 800505e:	f898 3000 	ldrb.w	r3, [r8]
 8005062:	2b30      	cmp	r3, #48	; 0x30
 8005064:	f000 8184 	beq.w	8005370 <_svfprintf_r+0x1420>
 8005068:	9b25      	ldr	r3, [sp, #148]	; 0x94
 800506a:	441c      	add	r4, r3
 800506c:	e022      	b.n	80050b4 <_svfprintf_r+0x1164>
 800506e:	980e      	ldr	r0, [sp, #56]	; 0x38
 8005070:	2140      	movs	r1, #64	; 0x40
 8005072:	f001 fa93 	bl	800659c <_malloc_r>
 8005076:	6020      	str	r0, [r4, #0]
 8005078:	6120      	str	r0, [r4, #16]
 800507a:	2800      	cmp	r0, #0
 800507c:	f000 81b6 	beq.w	80053ec <_svfprintf_r+0x149c>
 8005080:	9c0b      	ldr	r4, [sp, #44]	; 0x2c
 8005082:	2340      	movs	r3, #64	; 0x40
 8005084:	6163      	str	r3, [r4, #20]
 8005086:	f7fe bf79 	b.w	8003f7c <_svfprintf_r+0x2c>
 800508a:	2d45      	cmp	r5, #69	; 0x45
 800508c:	f040 8131 	bne.w	80052f2 <_svfprintf_r+0x13a2>
 8005090:	980c      	ldr	r0, [sp, #48]	; 0x30
 8005092:	2102      	movs	r1, #2
 8005094:	9a1b      	ldr	r2, [sp, #108]	; 0x6c
 8005096:	4653      	mov	r3, sl
 8005098:	1c44      	adds	r4, r0, #1
 800509a:	9100      	str	r1, [sp, #0]
 800509c:	9401      	str	r4, [sp, #4]
 800509e:	a925      	add	r1, sp, #148	; 0x94
 80050a0:	980e      	ldr	r0, [sp, #56]	; 0x38
 80050a2:	9102      	str	r1, [sp, #8]
 80050a4:	a926      	add	r1, sp, #152	; 0x98
 80050a6:	9103      	str	r1, [sp, #12]
 80050a8:	a929      	add	r1, sp, #164	; 0xa4
 80050aa:	9104      	str	r1, [sp, #16]
 80050ac:	f000 fa52 	bl	8005554 <_dtoa_r>
 80050b0:	4680      	mov	r8, r0
 80050b2:	4404      	add	r4, r0
 80050b4:	2300      	movs	r3, #0
 80050b6:	981b      	ldr	r0, [sp, #108]	; 0x6c
 80050b8:	2200      	movs	r2, #0
 80050ba:	4651      	mov	r1, sl
 80050bc:	f004 fbb2 	bl	8009824 <__aeabi_dcmpeq>
 80050c0:	4623      	mov	r3, r4
 80050c2:	b948      	cbnz	r0, 80050d8 <_svfprintf_r+0x1188>
 80050c4:	9b29      	ldr	r3, [sp, #164]	; 0xa4
 80050c6:	429c      	cmp	r4, r3
 80050c8:	d906      	bls.n	80050d8 <_svfprintf_r+0x1188>
 80050ca:	2130      	movs	r1, #48	; 0x30
 80050cc:	1c5a      	adds	r2, r3, #1
 80050ce:	9229      	str	r2, [sp, #164]	; 0xa4
 80050d0:	7019      	strb	r1, [r3, #0]
 80050d2:	9b29      	ldr	r3, [sp, #164]	; 0xa4
 80050d4:	429c      	cmp	r4, r3
 80050d6:	d8f9      	bhi.n	80050cc <_svfprintf_r+0x117c>
 80050d8:	2d47      	cmp	r5, #71	; 0x47
 80050da:	ebc8 0303 	rsb	r3, r8, r3
 80050de:	9311      	str	r3, [sp, #68]	; 0x44
 80050e0:	f000 80ae 	beq.w	8005240 <_svfprintf_r+0x12f0>
 80050e4:	9c16      	ldr	r4, [sp, #88]	; 0x58
 80050e6:	2c65      	cmp	r4, #101	; 0x65
 80050e8:	f340 818a 	ble.w	8005400 <_svfprintf_r+0x14b0>
 80050ec:	9d16      	ldr	r5, [sp, #88]	; 0x58
 80050ee:	2d66      	cmp	r5, #102	; 0x66
 80050f0:	f000 8101 	beq.w	80052f6 <_svfprintf_r+0x13a6>
 80050f4:	9c25      	ldr	r4, [sp, #148]	; 0x94
 80050f6:	9418      	str	r4, [sp, #96]	; 0x60
 80050f8:	9c18      	ldr	r4, [sp, #96]	; 0x60
 80050fa:	9d11      	ldr	r5, [sp, #68]	; 0x44
 80050fc:	42ac      	cmp	r4, r5
 80050fe:	f2c0 80ea 	blt.w	80052d6 <_svfprintf_r+0x1386>
 8005102:	9c0a      	ldr	r4, [sp, #40]	; 0x28
 8005104:	9d18      	ldr	r5, [sp, #96]	; 0x60
 8005106:	07e0      	lsls	r0, r4, #31
 8005108:	bf4b      	itete	mi
 800510a:	3501      	addmi	r5, #1
 800510c:	ea25 73e5 	bicpl.w	r3, r5, r5, asr #31
 8005110:	ea25 73e5 	bicmi.w	r3, r5, r5, asr #31
 8005114:	2467      	movpl	r4, #103	; 0x67
 8005116:	bf4d      	iteet	mi
 8005118:	2467      	movmi	r4, #103	; 0x67
 800511a:	9510      	strpl	r5, [sp, #64]	; 0x40
 800511c:	9416      	strpl	r4, [sp, #88]	; 0x58
 800511e:	9510      	strmi	r5, [sp, #64]	; 0x40
 8005120:	bf48      	it	mi
 8005122:	9416      	strmi	r4, [sp, #88]	; 0x58
 8005124:	f1bb 0f00 	cmp.w	fp, #0
 8005128:	d175      	bne.n	8005216 <_svfprintf_r+0x12c6>
 800512a:	9c0f      	ldr	r4, [sp, #60]	; 0x3c
 800512c:	930d      	str	r3, [sp, #52]	; 0x34
 800512e:	f8cd b030 	str.w	fp, [sp, #48]	; 0x30
 8005132:	940a      	str	r4, [sp, #40]	; 0x28
 8005134:	f89d a08f 	ldrb.w	sl, [sp, #143]	; 0x8f
 8005138:	f7ff b84b 	b.w	80041d2 <_svfprintf_r+0x282>
 800513c:	980e      	ldr	r0, [sp, #56]	; 0x38
 800513e:	aa2b      	add	r2, sp, #172	; 0xac
 8005140:	990b      	ldr	r1, [sp, #44]	; 0x2c
 8005142:	f002 fba9 	bl	8007898 <__ssprint_r>
 8005146:	2800      	cmp	r0, #0
 8005148:	f47e afe7 	bne.w	800411a <_svfprintf_r+0x1ca>
 800514c:	9925      	ldr	r1, [sp, #148]	; 0x94
 800514e:	af38      	add	r7, sp, #224	; 0xe0
 8005150:	9c2d      	ldr	r4, [sp, #180]	; 0xb4
 8005152:	e6e3      	b.n	8004f1c <_svfprintf_r+0xfcc>
 8005154:	3301      	adds	r3, #1
 8005156:	9c0f      	ldr	r4, [sp, #60]	; 0x3c
 8005158:	2b07      	cmp	r3, #7
 800515a:	4452      	add	r2, sl
 800515c:	932c      	str	r3, [sp, #176]	; 0xb0
 800515e:	e887 0410 	stmia.w	r7, {r4, sl}
 8005162:	bfd8      	it	le
 8005164:	3708      	addle	r7, #8
 8005166:	922d      	str	r2, [sp, #180]	; 0xb4
 8005168:	dd0a      	ble.n	8005180 <_svfprintf_r+0x1230>
 800516a:	980e      	ldr	r0, [sp, #56]	; 0x38
 800516c:	aa2b      	add	r2, sp, #172	; 0xac
 800516e:	990b      	ldr	r1, [sp, #44]	; 0x2c
 8005170:	f002 fb92 	bl	8007898 <__ssprint_r>
 8005174:	2800      	cmp	r0, #0
 8005176:	f47e afd0 	bne.w	800411a <_svfprintf_r+0x1ca>
 800517a:	9a2d      	ldr	r2, [sp, #180]	; 0xb4
 800517c:	af38      	add	r7, sp, #224	; 0xe0
 800517e:	9b2c      	ldr	r3, [sp, #176]	; 0xb0
 8005180:	3301      	adds	r3, #1
 8005182:	9d11      	ldr	r5, [sp, #68]	; 0x44
 8005184:	9c11      	ldr	r4, [sp, #68]	; 0x44
 8005186:	2b07      	cmp	r3, #7
 8005188:	932c      	str	r3, [sp, #176]	; 0xb0
 800518a:	4414      	add	r4, r2
 800518c:	f8c7 8000 	str.w	r8, [r7]
 8005190:	942d      	str	r4, [sp, #180]	; 0xb4
 8005192:	607d      	str	r5, [r7, #4]
 8005194:	f77f a902 	ble.w	800439c <_svfprintf_r+0x44c>
 8005198:	e47a      	b.n	8004a90 <_svfprintf_r+0xb40>
 800519a:	950c      	str	r5, [sp, #48]	; 0x30
 800519c:	f002 fb4c 	bl	8007838 <strlen>
 80051a0:	9414      	str	r4, [sp, #80]	; 0x50
 80051a2:	9c0c      	ldr	r4, [sp, #48]	; 0x30
 80051a4:	f89d a08f 	ldrb.w	sl, [sp, #143]	; 0x8f
 80051a8:	9418      	str	r4, [sp, #96]	; 0x60
 80051aa:	ea20 75e0 	bic.w	r5, r0, r0, asr #31
 80051ae:	9010      	str	r0, [sp, #64]	; 0x40
 80051b0:	950d      	str	r5, [sp, #52]	; 0x34
 80051b2:	f7ff b80e 	b.w	80041d2 <_svfprintf_r+0x282>
 80051b6:	980e      	ldr	r0, [sp, #56]	; 0x38
 80051b8:	aa2b      	add	r2, sp, #172	; 0xac
 80051ba:	990b      	ldr	r1, [sp, #44]	; 0x2c
 80051bc:	f002 fb6c 	bl	8007898 <__ssprint_r>
 80051c0:	2800      	cmp	r0, #0
 80051c2:	f47e afaa 	bne.w	800411a <_svfprintf_r+0x1ca>
 80051c6:	9c2d      	ldr	r4, [sp, #180]	; 0xb4
 80051c8:	af38      	add	r7, sp, #224	; 0xe0
 80051ca:	e4b1      	b.n	8004b30 <_svfprintf_r+0xbe0>
 80051cc:	0800a034 	stmdaeq	r0, {r2, r4, r5, sp, pc}
 80051d0:	980e      	ldr	r0, [sp, #56]	; 0x38
 80051d2:	aa2b      	add	r2, sp, #172	; 0xac
 80051d4:	990b      	ldr	r1, [sp, #44]	; 0x2c
 80051d6:	f002 fb5f 	bl	8007898 <__ssprint_r>
 80051da:	2800      	cmp	r0, #0
 80051dc:	f47e af9d 	bne.w	800411a <_svfprintf_r+0x1ca>
 80051e0:	9b25      	ldr	r3, [sp, #148]	; 0x94
 80051e2:	af38      	add	r7, sp, #224	; 0xe0
 80051e4:	9a11      	ldr	r2, [sp, #68]	; 0x44
 80051e6:	9c2d      	ldr	r4, [sp, #180]	; 0xb4
 80051e8:	1ad3      	subs	r3, r2, r3
 80051ea:	e5a7      	b.n	8004d3c <_svfprintf_r+0xdec>
 80051ec:	9d0c      	ldr	r5, [sp, #48]	; 0x30
 80051ee:	46c2      	mov	sl, r8
 80051f0:	f24a 4854 	movw	r8, #42068	; 0xa454
 80051f4:	9414      	str	r4, [sp, #80]	; 0x50
 80051f6:	2d06      	cmp	r5, #6
 80051f8:	bf28      	it	cs
 80051fa:	2506      	movcs	r5, #6
 80051fc:	f8cd a030 	str.w	sl, [sp, #48]	; 0x30
 8005200:	9510      	str	r5, [sp, #64]	; 0x40
 8005202:	4654      	mov	r4, sl
 8005204:	ea25 75e5 	bic.w	r5, r5, r5, asr #31
 8005208:	f8cd a060 	str.w	sl, [sp, #96]	; 0x60
 800520c:	950d      	str	r5, [sp, #52]	; 0x34
 800520e:	f6c0 0800 	movt	r8, #2048	; 0x800
 8005212:	f7fe bfde 	b.w	80041d2 <_svfprintf_r+0x282>
 8005216:	9d0f      	ldr	r5, [sp, #60]	; 0x3c
 8005218:	f04f 0a2d 	mov.w	sl, #45	; 0x2d
 800521c:	2400      	movs	r4, #0
 800521e:	930d      	str	r3, [sp, #52]	; 0x34
 8005220:	f88d a08f 	strb.w	sl, [sp, #143]	; 0x8f
 8005224:	950a      	str	r5, [sp, #40]	; 0x28
 8005226:	940c      	str	r4, [sp, #48]	; 0x30
 8005228:	f7fe bfd6 	b.w	80041d8 <_svfprintf_r+0x288>
 800522c:	f04f 0a2d 	mov.w	sl, #45	; 0x2d
 8005230:	f88d a08f 	strb.w	sl, [sp, #143]	; 0x8f
 8005234:	f7ff b9b2 	b.w	800459c <_svfprintf_r+0x64c>
 8005238:	9b29      	ldr	r3, [sp, #164]	; 0xa4
 800523a:	ebc8 0303 	rsb	r3, r8, r3
 800523e:	9311      	str	r3, [sp, #68]	; 0x44
 8005240:	9b25      	ldr	r3, [sp, #148]	; 0x94
 8005242:	1cda      	adds	r2, r3, #3
 8005244:	db11      	blt.n	800526a <_svfprintf_r+0x131a>
 8005246:	9c0c      	ldr	r4, [sp, #48]	; 0x30
 8005248:	429c      	cmp	r4, r3
 800524a:	db0e      	blt.n	800526a <_svfprintf_r+0x131a>
 800524c:	9318      	str	r3, [sp, #96]	; 0x60
 800524e:	e753      	b.n	80050f8 <_svfprintf_r+0x11a8>
 8005250:	9d0c      	ldr	r5, [sp, #48]	; 0x30
 8005252:	9414      	str	r4, [sp, #80]	; 0x50
 8005254:	ea25 75e5 	bic.w	r5, r5, r5, asr #31
 8005258:	950d      	str	r5, [sp, #52]	; 0x34
 800525a:	9d0c      	ldr	r5, [sp, #48]	; 0x30
 800525c:	9018      	str	r0, [sp, #96]	; 0x60
 800525e:	900c      	str	r0, [sp, #48]	; 0x30
 8005260:	9510      	str	r5, [sp, #64]	; 0x40
 8005262:	f89d a08f 	ldrb.w	sl, [sp, #143]	; 0x8f
 8005266:	f7fe bfb4 	b.w	80041d2 <_svfprintf_r+0x282>
 800526a:	9d16      	ldr	r5, [sp, #88]	; 0x58
 800526c:	3d02      	subs	r5, #2
 800526e:	9516      	str	r5, [sp, #88]	; 0x58
 8005270:	3b01      	subs	r3, #1
 8005272:	9d16      	ldr	r5, [sp, #88]	; 0x58
 8005274:	2b00      	cmp	r3, #0
 8005276:	9325      	str	r3, [sp, #148]	; 0x94
 8005278:	bfba      	itte	lt
 800527a:	425b      	neglt	r3, r3
 800527c:	222d      	movlt	r2, #45	; 0x2d
 800527e:	222b      	movge	r2, #43	; 0x2b
 8005280:	2b09      	cmp	r3, #9
 8005282:	f88d 509c 	strb.w	r5, [sp, #156]	; 0x9c
 8005286:	f88d 209d 	strb.w	r2, [sp, #157]	; 0x9d
 800528a:	dc43      	bgt.n	8005314 <_svfprintf_r+0x13c4>
 800528c:	3330      	adds	r3, #48	; 0x30
 800528e:	f88d 309f 	strb.w	r3, [sp, #159]	; 0x9f
 8005292:	2330      	movs	r3, #48	; 0x30
 8005294:	f88d 309e 	strb.w	r3, [sp, #158]	; 0x9e
 8005298:	ab28      	add	r3, sp, #160	; 0xa0
 800529a:	9d11      	ldr	r5, [sp, #68]	; 0x44
 800529c:	aa27      	add	r2, sp, #156	; 0x9c
 800529e:	9c11      	ldr	r4, [sp, #68]	; 0x44
 80052a0:	1a9a      	subs	r2, r3, r2
 80052a2:	2d01      	cmp	r5, #1
 80052a4:	921e      	str	r2, [sp, #120]	; 0x78
 80052a6:	4414      	add	r4, r2
 80052a8:	9410      	str	r4, [sp, #64]	; 0x40
 80052aa:	dd78      	ble.n	800539e <_svfprintf_r+0x144e>
 80052ac:	9b10      	ldr	r3, [sp, #64]	; 0x40
 80052ae:	2400      	movs	r4, #0
 80052b0:	9418      	str	r4, [sp, #96]	; 0x60
 80052b2:	3301      	adds	r3, #1
 80052b4:	9310      	str	r3, [sp, #64]	; 0x40
 80052b6:	ea23 73e3 	bic.w	r3, r3, r3, asr #31
 80052ba:	e733      	b.n	8005124 <_svfprintf_r+0x11d4>
 80052bc:	980e      	ldr	r0, [sp, #56]	; 0x38
 80052be:	aa2b      	add	r2, sp, #172	; 0xac
 80052c0:	990b      	ldr	r1, [sp, #44]	; 0x2c
 80052c2:	f002 fae9 	bl	8007898 <__ssprint_r>
 80052c6:	2800      	cmp	r0, #0
 80052c8:	f47e af27 	bne.w	800411a <_svfprintf_r+0x1ca>
 80052cc:	9925      	ldr	r1, [sp, #148]	; 0x94
 80052ce:	af38      	add	r7, sp, #224	; 0xe0
 80052d0:	9a2d      	ldr	r2, [sp, #180]	; 0xb4
 80052d2:	9b2c      	ldr	r3, [sp, #176]	; 0xb0
 80052d4:	e638      	b.n	8004f48 <_svfprintf_r+0xff8>
 80052d6:	9d18      	ldr	r5, [sp, #96]	; 0x60
 80052d8:	9c11      	ldr	r4, [sp, #68]	; 0x44
 80052da:	2d00      	cmp	r5, #0
 80052dc:	bfd4      	ite	le
 80052de:	f1c5 0302 	rsble	r3, r5, #2
 80052e2:	2301      	movgt	r3, #1
 80052e4:	441c      	add	r4, r3
 80052e6:	2567      	movs	r5, #103	; 0x67
 80052e8:	9410      	str	r4, [sp, #64]	; 0x40
 80052ea:	ea24 73e4 	bic.w	r3, r4, r4, asr #31
 80052ee:	9516      	str	r5, [sp, #88]	; 0x58
 80052f0:	e718      	b.n	8005124 <_svfprintf_r+0x11d4>
 80052f2:	2002      	movs	r0, #2
 80052f4:	e699      	b.n	800502a <_svfprintf_r+0x10da>
 80052f6:	9d25      	ldr	r5, [sp, #148]	; 0x94
 80052f8:	2d00      	cmp	r5, #0
 80052fa:	9518      	str	r5, [sp, #96]	; 0x60
 80052fc:	dd58      	ble.n	80053b0 <_svfprintf_r+0x1460>
 80052fe:	9c0c      	ldr	r4, [sp, #48]	; 0x30
 8005300:	2c00      	cmp	r4, #0
 8005302:	d144      	bne.n	800538e <_svfprintf_r+0x143e>
 8005304:	9d0a      	ldr	r5, [sp, #40]	; 0x28
 8005306:	07ed      	lsls	r5, r5, #31
 8005308:	d441      	bmi.n	800538e <_svfprintf_r+0x143e>
 800530a:	9c18      	ldr	r4, [sp, #96]	; 0x60
 800530c:	ea24 73e4 	bic.w	r3, r4, r4, asr #31
 8005310:	9410      	str	r4, [sp, #64]	; 0x40
 8005312:	e707      	b.n	8005124 <_svfprintf_r+0x11d4>
 8005314:	f246 6167 	movw	r1, #26215	; 0x6667
 8005318:	f10d 05aa 	add.w	r5, sp, #170	; 0xaa
 800531c:	f2c6 6166 	movt	r1, #26214	; 0x6666
 8005320:	fb81 2003 	smull	r2, r0, r1, r3
 8005324:	17da      	asrs	r2, r3, #31
 8005326:	462c      	mov	r4, r5
 8005328:	3d01      	subs	r5, #1
 800532a:	ebc2 02a0 	rsb	r2, r2, r0, asr #2
 800532e:	eb02 0082 	add.w	r0, r2, r2, lsl #2
 8005332:	eba3 0040 	sub.w	r0, r3, r0, lsl #1
 8005336:	4613      	mov	r3, r2
 8005338:	2b09      	cmp	r3, #9
 800533a:	f100 0230 	add.w	r2, r0, #48	; 0x30
 800533e:	7022      	strb	r2, [r4, #0]
 8005340:	dcee      	bgt.n	8005320 <_svfprintf_r+0x13d0>
 8005342:	f10d 00ab 	add.w	r0, sp, #171	; 0xab
 8005346:	3330      	adds	r3, #48	; 0x30
 8005348:	42a8      	cmp	r0, r5
 800534a:	b2da      	uxtb	r2, r3
 800534c:	f804 2c01 	strb.w	r2, [r4, #-1]
 8005350:	d953      	bls.n	80053fa <_svfprintf_r+0x14aa>
 8005352:	f10d 019d 	add.w	r1, sp, #157	; 0x9d
 8005356:	4623      	mov	r3, r4
 8005358:	e001      	b.n	800535e <_svfprintf_r+0x140e>
 800535a:	f813 2b01 	ldrb.w	r2, [r3], #1
 800535e:	4283      	cmp	r3, r0
 8005360:	f801 2f01 	strb.w	r2, [r1, #1]!
 8005364:	d1f9      	bne.n	800535a <_svfprintf_r+0x140a>
 8005366:	ad48      	add	r5, sp, #288	; 0x120
 8005368:	ebc4 0345 	rsb	r3, r4, r5, lsl #1
 800536c:	3bf6      	subs	r3, #246	; 0xf6
 800536e:	e794      	b.n	800529a <_svfprintf_r+0x134a>
 8005370:	981b      	ldr	r0, [sp, #108]	; 0x6c
 8005372:	2200      	movs	r2, #0
 8005374:	2300      	movs	r3, #0
 8005376:	4651      	mov	r1, sl
 8005378:	f004 fa54 	bl	8009824 <__aeabi_dcmpeq>
 800537c:	2800      	cmp	r0, #0
 800537e:	f47f ae73 	bne.w	8005068 <_svfprintf_r+0x1118>
 8005382:	980c      	ldr	r0, [sp, #48]	; 0x30
 8005384:	f1c0 0301 	rsb	r3, r0, #1
 8005388:	9325      	str	r3, [sp, #148]	; 0x94
 800538a:	441c      	add	r4, r3
 800538c:	e692      	b.n	80050b4 <_svfprintf_r+0x1164>
 800538e:	9d0c      	ldr	r5, [sp, #48]	; 0x30
 8005390:	9c18      	ldr	r4, [sp, #96]	; 0x60
 8005392:	1c6b      	adds	r3, r5, #1
 8005394:	441c      	add	r4, r3
 8005396:	9410      	str	r4, [sp, #64]	; 0x40
 8005398:	ea24 73e4 	bic.w	r3, r4, r4, asr #31
 800539c:	e6c2      	b.n	8005124 <_svfprintf_r+0x11d4>
 800539e:	9c0a      	ldr	r4, [sp, #40]	; 0x28
 80053a0:	f014 0301 	ands.w	r3, r4, #1
 80053a4:	d182      	bne.n	80052ac <_svfprintf_r+0x135c>
 80053a6:	9d10      	ldr	r5, [sp, #64]	; 0x40
 80053a8:	9318      	str	r3, [sp, #96]	; 0x60
 80053aa:	ea25 73e5 	bic.w	r3, r5, r5, asr #31
 80053ae:	e6b9      	b.n	8005124 <_svfprintf_r+0x11d4>
 80053b0:	9d0c      	ldr	r5, [sp, #48]	; 0x30
 80053b2:	b935      	cbnz	r5, 80053c2 <_svfprintf_r+0x1472>
 80053b4:	9c0a      	ldr	r4, [sp, #40]	; 0x28
 80053b6:	07e4      	lsls	r4, r4, #31
 80053b8:	bf5c      	itt	pl
 80053ba:	2301      	movpl	r3, #1
 80053bc:	9310      	strpl	r3, [sp, #64]	; 0x40
 80053be:	f57f aeb1 	bpl.w	8005124 <_svfprintf_r+0x11d4>
 80053c2:	9d0c      	ldr	r5, [sp, #48]	; 0x30
 80053c4:	3502      	adds	r5, #2
 80053c6:	9510      	str	r5, [sp, #64]	; 0x40
 80053c8:	ea25 73e5 	bic.w	r3, r5, r5, asr #31
 80053cc:	e6aa      	b.n	8005124 <_svfprintf_r+0x11d4>
 80053ce:	9d14      	ldr	r5, [sp, #80]	; 0x50
 80053d0:	f899 3001 	ldrb.w	r3, [r9, #1]
 80053d4:	46a1      	mov	r9, r4
 80053d6:	682d      	ldr	r5, [r5, #0]
 80053d8:	950c      	str	r5, [sp, #48]	; 0x30
 80053da:	9d14      	ldr	r5, [sp, #80]	; 0x50
 80053dc:	1d29      	adds	r1, r5, #4
 80053de:	9d0c      	ldr	r5, [sp, #48]	; 0x30
 80053e0:	9114      	str	r1, [sp, #80]	; 0x50
 80053e2:	2d00      	cmp	r5, #0
 80053e4:	f6be ae1d 	bge.w	8004022 <_svfprintf_r+0xd2>
 80053e8:	f7fe be18 	b.w	800401c <_svfprintf_r+0xcc>
 80053ec:	9d0e      	ldr	r5, [sp, #56]	; 0x38
 80053ee:	230c      	movs	r3, #12
 80053f0:	f04f 30ff 	mov.w	r0, #4294967295
 80053f4:	602b      	str	r3, [r5, #0]
 80053f6:	f7fe be98 	b.w	800412a <_svfprintf_r+0x1da>
 80053fa:	f10d 039e 	add.w	r3, sp, #158	; 0x9e
 80053fe:	e74c      	b.n	800529a <_svfprintf_r+0x134a>
 8005400:	9b25      	ldr	r3, [sp, #148]	; 0x94
 8005402:	e735      	b.n	8005270 <_svfprintf_r+0x1320>
 8005404:	0000      	movs	r0, r0
	...

08005408 <quorem>:
 8005408:	e92d 4ff0 	stmdb	sp!, {r4, r5, r6, r7, r8, r9, sl, fp, lr}
 800540c:	468c      	mov	ip, r1
 800540e:	6903      	ldr	r3, [r0, #16]
 8005410:	4683      	mov	fp, r0
 8005412:	690d      	ldr	r5, [r1, #16]
 8005414:	b085      	sub	sp, #20
 8005416:	429d      	cmp	r5, r3
 8005418:	bfc8      	it	gt
 800541a:	2000      	movgt	r0, #0
 800541c:	f300 8096 	bgt.w	800554c <quorem+0x144>
 8005420:	3d01      	subs	r5, #1
 8005422:	f101 0414 	add.w	r4, r1, #20
 8005426:	f10b 0a14 	add.w	sl, fp, #20
 800542a:	f854 1025 	ldr.w	r1, [r4, r5, lsl #2]
 800542e:	00aa      	lsls	r2, r5, #2
 8005430:	f85a 0025 	ldr.w	r0, [sl, r5, lsl #2]
 8005434:	4691      	mov	r9, r2
 8005436:	3101      	adds	r1, #1
 8005438:	9202      	str	r2, [sp, #8]
 800543a:	f8cd c004 	str.w	ip, [sp, #4]
 800543e:	4452      	add	r2, sl
 8005440:	9203      	str	r2, [sp, #12]
 8005442:	f003 fc91 	bl	8008d68 <__aeabi_uidiv>
 8005446:	44a1      	add	r9, r4
 8005448:	f8dd c004 	ldr.w	ip, [sp, #4]
 800544c:	4680      	mov	r8, r0
 800544e:	2800      	cmp	r0, #0
 8005450:	d041      	beq.n	80054d6 <quorem+0xce>
 8005452:	2100      	movs	r1, #0
 8005454:	4622      	mov	r2, r4
 8005456:	4608      	mov	r0, r1
 8005458:	4653      	mov	r3, sl
 800545a:	460f      	mov	r7, r1
 800545c:	f852 1b04 	ldr.w	r1, [r2], #4
 8005460:	681e      	ldr	r6, [r3, #0]
 8005462:	4591      	cmp	r9, r2
 8005464:	fa1f fe81 	uxth.w	lr, r1
 8005468:	ea4f 4111 	mov.w	r1, r1, lsr #16
 800546c:	fb0e 7708 	mla	r7, lr, r8, r7
 8005470:	fa1f fe86 	uxth.w	lr, r6
 8005474:	fb01 f108 	mul.w	r1, r1, r8
 8005478:	eb01 4117 	add.w	r1, r1, r7, lsr #16
 800547c:	b2bf      	uxth	r7, r7
 800547e:	ebc7 0000 	rsb	r0, r7, r0
 8005482:	4486      	add	lr, r0
 8005484:	b288      	uxth	r0, r1
 8005486:	ebc0 4016 	rsb	r0, r0, r6, lsr #16
 800548a:	ea4f 4711 	mov.w	r7, r1, lsr #16
 800548e:	eb00 402e 	add.w	r0, r0, lr, asr #16
 8005492:	fa1f fe8e 	uxth.w	lr, lr
 8005496:	ea4e 4100 	orr.w	r1, lr, r0, lsl #16
 800549a:	ea4f 4020 	mov.w	r0, r0, asr #16
 800549e:	f843 1b04 	str.w	r1, [r3], #4
 80054a2:	d2db      	bcs.n	800545c <quorem+0x54>
 80054a4:	9a02      	ldr	r2, [sp, #8]
 80054a6:	f85a 3002 	ldr.w	r3, [sl, r2]
 80054aa:	b9a3      	cbnz	r3, 80054d6 <quorem+0xce>
 80054ac:	9a03      	ldr	r2, [sp, #12]
 80054ae:	1f13      	subs	r3, r2, #4
 80054b0:	459a      	cmp	sl, r3
 80054b2:	d20e      	bcs.n	80054d2 <quorem+0xca>
 80054b4:	f852 3c04 	ldr.w	r3, [r2, #-4]
 80054b8:	b95b      	cbnz	r3, 80054d2 <quorem+0xca>
 80054ba:	f1a2 0308 	sub.w	r3, r2, #8
 80054be:	e001      	b.n	80054c4 <quorem+0xbc>
 80054c0:	6812      	ldr	r2, [r2, #0]
 80054c2:	b932      	cbnz	r2, 80054d2 <quorem+0xca>
 80054c4:	459a      	cmp	sl, r3
 80054c6:	461a      	mov	r2, r3
 80054c8:	f105 35ff 	add.w	r5, r5, #4294967295
 80054cc:	f1a3 0304 	sub.w	r3, r3, #4
 80054d0:	d3f6      	bcc.n	80054c0 <quorem+0xb8>
 80054d2:	f8cb 5010 	str.w	r5, [fp, #16]
 80054d6:	4661      	mov	r1, ip
 80054d8:	4658      	mov	r0, fp
 80054da:	f001 fe47 	bl	800716c <__mcmp>
 80054de:	2800      	cmp	r0, #0
 80054e0:	db33      	blt.n	800554a <quorem+0x142>
 80054e2:	f108 0801 	add.w	r8, r8, #1
 80054e6:	4653      	mov	r3, sl
 80054e8:	2200      	movs	r2, #0
 80054ea:	f854 6b04 	ldr.w	r6, [r4], #4
 80054ee:	6818      	ldr	r0, [r3, #0]
 80054f0:	45a1      	cmp	r9, r4
 80054f2:	b2b1      	uxth	r1, r6
 80054f4:	ea4f 4616 	mov.w	r6, r6, lsr #16
 80054f8:	ebc1 0202 	rsb	r2, r1, r2
 80054fc:	b287      	uxth	r7, r0
 80054fe:	eb02 0107 	add.w	r1, r2, r7
 8005502:	ebc6 4210 	rsb	r2, r6, r0, lsr #16
 8005506:	eb02 4221 	add.w	r2, r2, r1, asr #16
 800550a:	b289      	uxth	r1, r1
 800550c:	ea41 4102 	orr.w	r1, r1, r2, lsl #16
 8005510:	ea4f 4222 	mov.w	r2, r2, asr #16
 8005514:	f843 1b04 	str.w	r1, [r3], #4
 8005518:	d2e7      	bcs.n	80054ea <quorem+0xe2>
 800551a:	f85a 2025 	ldr.w	r2, [sl, r5, lsl #2]
 800551e:	eb0a 0385 	add.w	r3, sl, r5, lsl #2
 8005522:	b992      	cbnz	r2, 800554a <quorem+0x142>
 8005524:	1f1a      	subs	r2, r3, #4
 8005526:	4592      	cmp	sl, r2
 8005528:	d20d      	bcs.n	8005546 <quorem+0x13e>
 800552a:	f853 2c04 	ldr.w	r2, [r3, #-4]
 800552e:	b952      	cbnz	r2, 8005546 <quorem+0x13e>
 8005530:	3b08      	subs	r3, #8
 8005532:	e001      	b.n	8005538 <quorem+0x130>
 8005534:	6812      	ldr	r2, [r2, #0]
 8005536:	b932      	cbnz	r2, 8005546 <quorem+0x13e>
 8005538:	459a      	cmp	sl, r3
 800553a:	461a      	mov	r2, r3
 800553c:	f105 35ff 	add.w	r5, r5, #4294967295
 8005540:	f1a3 0304 	sub.w	r3, r3, #4
 8005544:	d3f6      	bcc.n	8005534 <quorem+0x12c>
 8005546:	f8cb 5010 	str.w	r5, [fp, #16]
 800554a:	4640      	mov	r0, r8
 800554c:	b005      	add	sp, #20
 800554e:	e8bd 8ff0 	ldmia.w	sp!, {r4, r5, r6, r7, r8, r9, sl, fp, pc}
 8005552:	bf00      	nop

08005554 <_dtoa_r>:
 8005554:	e92d 4ff0 	stmdb	sp!, {r4, r5, r6, r7, r8, r9, sl, fp, lr}
 8005558:	b09b      	sub	sp, #108	; 0x6c
 800555a:	6a46      	ldr	r6, [r0, #36]	; 0x24
 800555c:	4604      	mov	r4, r0
 800555e:	4692      	mov	sl, r2
 8005560:	469b      	mov	fp, r3
 8005562:	9d27      	ldr	r5, [sp, #156]	; 0x9c
 8005564:	2e00      	cmp	r6, #0
 8005566:	f000 82bb 	beq.w	8005ae0 <_dtoa_r+0x58c>
 800556a:	6833      	ldr	r3, [r6, #0]
 800556c:	b153      	cbz	r3, 8005584 <_dtoa_r+0x30>
 800556e:	6872      	ldr	r2, [r6, #4]
 8005570:	2601      	movs	r6, #1
 8005572:	4619      	mov	r1, r3
 8005574:	4096      	lsls	r6, r2
 8005576:	609e      	str	r6, [r3, #8]
 8005578:	605a      	str	r2, [r3, #4]
 800557a:	f001 fb9d 	bl	8006cb8 <_Bfree>
 800557e:	6a63      	ldr	r3, [r4, #36]	; 0x24
 8005580:	2200      	movs	r2, #0
 8005582:	601a      	str	r2, [r3, #0]
 8005584:	f1bb 0f00 	cmp.w	fp, #0
 8005588:	bfb4      	ite	lt
 800558a:	2301      	movlt	r3, #1
 800558c:	2300      	movge	r3, #0
 800558e:	602b      	str	r3, [r5, #0]
 8005590:	f04f 0300 	mov.w	r3, #0
 8005594:	bfb4      	ite	lt
 8005596:	f02b 4900 	biclt.w	r9, fp, #2147483648	; 0x80000000
 800559a:	46d9      	movge	r9, fp
 800559c:	461a      	mov	r2, r3
 800559e:	f6c7 73f0 	movt	r3, #32752	; 0x7ff0
 80055a2:	f6c7 72f0 	movt	r2, #32752	; 0x7ff0
 80055a6:	ea09 0303 	and.w	r3, r9, r3
 80055aa:	bfb8      	it	lt
 80055ac:	46cb      	movlt	fp, r9
 80055ae:	4293      	cmp	r3, r2
 80055b0:	d014      	beq.n	80055dc <_dtoa_r+0x88>
 80055b2:	2200      	movs	r2, #0
 80055b4:	2300      	movs	r3, #0
 80055b6:	4650      	mov	r0, sl
 80055b8:	4659      	mov	r1, fp
 80055ba:	f004 f933 	bl	8009824 <__aeabi_dcmpeq>
 80055be:	4680      	mov	r8, r0
 80055c0:	b328      	cbz	r0, 800560e <_dtoa_r+0xba>
 80055c2:	9e26      	ldr	r6, [sp, #152]	; 0x98
 80055c4:	2301      	movs	r3, #1
 80055c6:	6033      	str	r3, [r6, #0]
 80055c8:	9e28      	ldr	r6, [sp, #160]	; 0xa0
 80055ca:	2e00      	cmp	r6, #0
 80055cc:	f000 80dc 	beq.w	8005788 <_dtoa_r+0x234>
 80055d0:	4baf      	ldr	r3, [pc, #700]	; (8005890 <_dtoa_r+0x33c>)
 80055d2:	1e58      	subs	r0, r3, #1
 80055d4:	6033      	str	r3, [r6, #0]
 80055d6:	b01b      	add	sp, #108	; 0x6c
 80055d8:	e8bd 8ff0 	ldmia.w	sp!, {r4, r5, r6, r7, r8, r9, sl, fp, pc}
 80055dc:	9e26      	ldr	r6, [sp, #152]	; 0x98
 80055de:	f24a 406c 	movw	r0, #42092	; 0xa46c
 80055e2:	f242 730f 	movw	r3, #9999	; 0x270f
 80055e6:	f6c0 0000 	movt	r0, #2048	; 0x800
 80055ea:	6033      	str	r3, [r6, #0]
 80055ec:	f1ba 0f00 	cmp.w	sl, #0
 80055f0:	f000 80aa 	beq.w	8005748 <_dtoa_r+0x1f4>
 80055f4:	9e28      	ldr	r6, [sp, #160]	; 0xa0
 80055f6:	2e00      	cmp	r6, #0
 80055f8:	d0ed      	beq.n	80055d6 <_dtoa_r+0x82>
 80055fa:	78c3      	ldrb	r3, [r0, #3]
 80055fc:	2b00      	cmp	r3, #0
 80055fe:	f040 80b2 	bne.w	8005766 <_dtoa_r+0x212>
 8005602:	1cc3      	adds	r3, r0, #3
 8005604:	9e28      	ldr	r6, [sp, #160]	; 0xa0
 8005606:	6033      	str	r3, [r6, #0]
 8005608:	b01b      	add	sp, #108	; 0x6c
 800560a:	e8bd 8ff0 	ldmia.w	sp!, {r4, r5, r6, r7, r8, r9, sl, fp, pc}
 800560e:	aa19      	add	r2, sp, #100	; 0x64
 8005610:	ab18      	add	r3, sp, #96	; 0x60
 8005612:	9200      	str	r2, [sp, #0]
 8005614:	4620      	mov	r0, r4
 8005616:	9301      	str	r3, [sp, #4]
 8005618:	4652      	mov	r2, sl
 800561a:	465b      	mov	r3, fp
 800561c:	f001 feb6 	bl	800738c <__d2b>
 8005620:	ea5f 5519 	movs.w	r5, r9, lsr #20
 8005624:	900b      	str	r0, [sp, #44]	; 0x2c
 8005626:	f040 80a1 	bne.w	800576c <_dtoa_r+0x218>
 800562a:	9f18      	ldr	r7, [sp, #96]	; 0x60
 800562c:	f46f 6382 	mvn.w	r3, #1040	; 0x410
 8005630:	9d19      	ldr	r5, [sp, #100]	; 0x64
 8005632:	443d      	add	r5, r7
 8005634:	429d      	cmp	r5, r3
 8005636:	f2c0 8278 	blt.w	8005b2a <_dtoa_r+0x5d6>
 800563a:	f64f 430e 	movw	r3, #64526	; 0xfc0e
 800563e:	f205 4212 	addw	r2, r5, #1042	; 0x412
 8005642:	f6cf 73ff 	movt	r3, #65535	; 0xffff
 8005646:	fa2a f202 	lsr.w	r2, sl, r2
 800564a:	1b5b      	subs	r3, r3, r5
 800564c:	fa09 f003 	lsl.w	r0, r9, r3
 8005650:	4310      	orrs	r0, r2
 8005652:	f003 fe09 	bl	8009268 <__aeabi_ui2d>
 8005656:	3d01      	subs	r5, #1
 8005658:	46b8      	mov	r8, r7
 800565a:	2601      	movs	r6, #1
 800565c:	9615      	str	r6, [sp, #84]	; 0x54
 800565e:	f1a1 71f8 	sub.w	r1, r1, #32505856	; 0x1f00000
 8005662:	2300      	movs	r3, #0
 8005664:	2200      	movs	r2, #0
 8005666:	f6c3 73f8 	movt	r3, #16376	; 0x3ff8
 800566a:	f003 fcbf 	bl	8008fec <__aeabi_dsub>
 800566e:	a382      	add	r3, pc, #520	; (adr r3, 8005878 <_dtoa_r+0x324>)
 8005670:	e9d3 2300 	ldrd	r2, r3, [r3]
 8005674:	f003 fe6e 	bl	8009354 <__aeabi_dmul>
 8005678:	a381      	add	r3, pc, #516	; (adr r3, 8005880 <_dtoa_r+0x32c>)
 800567a:	e9d3 2300 	ldrd	r2, r3, [r3]
 800567e:	f003 fcb7 	bl	8008ff0 <__adddf3>
 8005682:	4606      	mov	r6, r0
 8005684:	4628      	mov	r0, r5
 8005686:	460f      	mov	r7, r1
 8005688:	f003 fdfe 	bl	8009288 <__aeabi_i2d>
 800568c:	a37e      	add	r3, pc, #504	; (adr r3, 8005888 <_dtoa_r+0x334>)
 800568e:	e9d3 2300 	ldrd	r2, r3, [r3]
 8005692:	f003 fe5f 	bl	8009354 <__aeabi_dmul>
 8005696:	4602      	mov	r2, r0
 8005698:	460b      	mov	r3, r1
 800569a:	4630      	mov	r0, r6
 800569c:	4639      	mov	r1, r7
 800569e:	f003 fca7 	bl	8008ff0 <__adddf3>
 80056a2:	4606      	mov	r6, r0
 80056a4:	460f      	mov	r7, r1
 80056a6:	f004 f8ef 	bl	8009888 <__aeabi_d2iz>
 80056aa:	4639      	mov	r1, r7
 80056ac:	2200      	movs	r2, #0
 80056ae:	2300      	movs	r3, #0
 80056b0:	9004      	str	r0, [sp, #16]
 80056b2:	4630      	mov	r0, r6
 80056b4:	f004 f8c0 	bl	8009838 <__aeabi_dcmplt>
 80056b8:	2800      	cmp	r0, #0
 80056ba:	f040 8226 	bne.w	8005b0a <_dtoa_r+0x5b6>
 80056be:	9e04      	ldr	r6, [sp, #16]
 80056c0:	2e16      	cmp	r6, #22
 80056c2:	bf84      	itt	hi
 80056c4:	2601      	movhi	r6, #1
 80056c6:	960f      	strhi	r6, [sp, #60]	; 0x3c
 80056c8:	d812      	bhi.n	80056f0 <_dtoa_r+0x19c>
 80056ca:	f24a 0158 	movw	r1, #41048	; 0xa058
 80056ce:	4652      	mov	r2, sl
 80056d0:	f6c0 0100 	movt	r1, #2048	; 0x800
 80056d4:	465b      	mov	r3, fp
 80056d6:	eb01 01c6 	add.w	r1, r1, r6, lsl #3
 80056da:	e9d1 0100 	ldrd	r0, r1, [r1]
 80056de:	f004 f8c9 	bl	8009874 <__aeabi_dcmpgt>
 80056e2:	2800      	cmp	r0, #0
 80056e4:	f000 821f 	beq.w	8005b26 <_dtoa_r+0x5d2>
 80056e8:	3e01      	subs	r6, #1
 80056ea:	9604      	str	r6, [sp, #16]
 80056ec:	2600      	movs	r6, #0
 80056ee:	960f      	str	r6, [sp, #60]	; 0x3c
 80056f0:	ebc5 0508 	rsb	r5, r5, r8
 80056f4:	3d01      	subs	r5, #1
 80056f6:	9506      	str	r5, [sp, #24]
 80056f8:	bf49      	itett	mi
 80056fa:	426e      	negmi	r6, r5
 80056fc:	2600      	movpl	r6, #0
 80056fe:	960a      	strmi	r6, [sp, #40]	; 0x28
 8005700:	2600      	movmi	r6, #0
 8005702:	bf54      	ite	pl
 8005704:	960a      	strpl	r6, [sp, #40]	; 0x28
 8005706:	9606      	strmi	r6, [sp, #24]
 8005708:	9e04      	ldr	r6, [sp, #16]
 800570a:	2e00      	cmp	r6, #0
 800570c:	f2c0 81f1 	blt.w	8005af2 <_dtoa_r+0x59e>
 8005710:	f8dd e018 	ldr.w	lr, [sp, #24]
 8005714:	960e      	str	r6, [sp, #56]	; 0x38
 8005716:	44b6      	add	lr, r6
 8005718:	2600      	movs	r6, #0
 800571a:	f8cd e018 	str.w	lr, [sp, #24]
 800571e:	960c      	str	r6, [sp, #48]	; 0x30
 8005720:	9e24      	ldr	r6, [sp, #144]	; 0x90
 8005722:	2e09      	cmp	r6, #9
 8005724:	d835      	bhi.n	8005792 <_dtoa_r+0x23e>
 8005726:	2e05      	cmp	r6, #5
 8005728:	bfc4      	itt	gt
 800572a:	3e04      	subgt	r6, #4
 800572c:	9624      	strgt	r6, [sp, #144]	; 0x90
 800572e:	9e24      	ldr	r6, [sp, #144]	; 0x90
 8005730:	bfcc      	ite	gt
 8005732:	2500      	movgt	r5, #0
 8005734:	2501      	movle	r5, #1
 8005736:	1eb3      	subs	r3, r6, #2
 8005738:	2b03      	cmp	r3, #3
 800573a:	d82c      	bhi.n	8005796 <_dtoa_r+0x242>
 800573c:	e8df f013 	tbh	[pc, r3, lsl #1]
 8005740:	02290361 	eoreq	r0, r9, #-2080374783	; 0x84000001
 8005744:	058d0370 	streq	r0, [sp, #880]	; 0x370
 8005748:	f24a 4260 	movw	r2, #42080	; 0xa460
 800574c:	f24a 436c 	movw	r3, #42092	; 0xa46c
 8005750:	f3c9 0013 	ubfx	r0, r9, #0, #20
 8005754:	f6c0 0200 	movt	r2, #2048	; 0x800
 8005758:	f6c0 0300 	movt	r3, #2048	; 0x800
 800575c:	2800      	cmp	r0, #0
 800575e:	bf0c      	ite	eq
 8005760:	4610      	moveq	r0, r2
 8005762:	4618      	movne	r0, r3
 8005764:	e746      	b.n	80055f4 <_dtoa_r+0xa0>
 8005766:	f100 0308 	add.w	r3, r0, #8
 800576a:	e74b      	b.n	8005604 <_dtoa_r+0xb0>
 800576c:	f3cb 0313 	ubfx	r3, fp, #0, #20
 8005770:	f8cd 8054 	str.w	r8, [sp, #84]	; 0x54
 8005774:	f043 537f 	orr.w	r3, r3, #1069547520	; 0x3fc00000
 8005778:	4650      	mov	r0, sl
 800577a:	f2a5 35ff 	subw	r5, r5, #1023	; 0x3ff
 800577e:	f8dd 8060 	ldr.w	r8, [sp, #96]	; 0x60
 8005782:	f443 1140 	orr.w	r1, r3, #3145728	; 0x300000
 8005786:	e76c      	b.n	8005662 <_dtoa_r+0x10e>
 8005788:	f24a 405c 	movw	r0, #42076	; 0xa45c
 800578c:	f6c0 0000 	movt	r0, #2048	; 0x800
 8005790:	e721      	b.n	80055d6 <_dtoa_r+0x82>
 8005792:	2600      	movs	r6, #0
 8005794:	9624      	str	r6, [sp, #144]	; 0x90
 8005796:	6a65      	ldr	r5, [r4, #36]	; 0x24
 8005798:	2300      	movs	r3, #0
 800579a:	4619      	mov	r1, r3
 800579c:	4620      	mov	r0, r4
 800579e:	f04f 36ff 	mov.w	r6, #4294967295
 80057a2:	9325      	str	r3, [sp, #148]	; 0x94
 80057a4:	606b      	str	r3, [r5, #4]
 80057a6:	9609      	str	r6, [sp, #36]	; 0x24
 80057a8:	9614      	str	r6, [sp, #80]	; 0x50
 80057aa:	f001 fa4f 	bl	8006c4c <_Balloc>
 80057ae:	6a63      	ldr	r3, [r4, #36]	; 0x24
 80057b0:	2601      	movs	r6, #1
 80057b2:	960d      	str	r6, [sp, #52]	; 0x34
 80057b4:	6028      	str	r0, [r5, #0]
 80057b6:	681b      	ldr	r3, [r3, #0]
 80057b8:	9308      	str	r3, [sp, #32]
 80057ba:	9b19      	ldr	r3, [sp, #100]	; 0x64
 80057bc:	2b00      	cmp	r3, #0
 80057be:	f2c0 80c7 	blt.w	8005950 <_dtoa_r+0x3fc>
 80057c2:	9e04      	ldr	r6, [sp, #16]
 80057c4:	2e0e      	cmp	r6, #14
 80057c6:	f300 80c3 	bgt.w	8005950 <_dtoa_r+0x3fc>
 80057ca:	f8dd e094 	ldr.w	lr, [sp, #148]	; 0x94
 80057ce:	f24a 0358 	movw	r3, #41048	; 0xa058
 80057d2:	9e09      	ldr	r6, [sp, #36]	; 0x24
 80057d4:	f6c0 0300 	movt	r3, #2048	; 0x800
 80057d8:	ea4f 72de 	mov.w	r2, lr, lsr #31
 80057dc:	2e00      	cmp	r6, #0
 80057de:	bfcc      	ite	gt
 80057e0:	2200      	movgt	r2, #0
 80057e2:	f002 0201 	andle.w	r2, r2, #1
 80057e6:	9e04      	ldr	r6, [sp, #16]
 80057e8:	eb03 03c6 	add.w	r3, r3, r6, lsl #3
 80057ec:	e9d3 0100 	ldrd	r0, r1, [r3]
 80057f0:	e9cd 0106 	strd	r0, r1, [sp, #24]
 80057f4:	2a00      	cmp	r2, #0
 80057f6:	f040 846e 	bne.w	80060d6 <_dtoa_r+0xb82>
 80057fa:	4602      	mov	r2, r0
 80057fc:	460b      	mov	r3, r1
 80057fe:	4650      	mov	r0, sl
 8005800:	4659      	mov	r1, fp
 8005802:	f003 fed1 	bl	80095a8 <__aeabi_ddiv>
 8005806:	9e08      	ldr	r6, [sp, #32]
 8005808:	f004 f83e 	bl	8009888 <__aeabi_d2iz>
 800580c:	1c75      	adds	r5, r6, #1
 800580e:	4680      	mov	r8, r0
 8005810:	f003 fd3a 	bl	8009288 <__aeabi_i2d>
 8005814:	e9dd 2306 	ldrd	r2, r3, [sp, #24]
 8005818:	f003 fd9c 	bl	8009354 <__aeabi_dmul>
 800581c:	4602      	mov	r2, r0
 800581e:	460b      	mov	r3, r1
 8005820:	4650      	mov	r0, sl
 8005822:	4659      	mov	r1, fp
 8005824:	f003 fbe2 	bl	8008fec <__aeabi_dsub>
 8005828:	9a09      	ldr	r2, [sp, #36]	; 0x24
 800582a:	f8dd e020 	ldr.w	lr, [sp, #32]
 800582e:	f108 0330 	add.w	r3, r8, #48	; 0x30
 8005832:	2a01      	cmp	r2, #1
 8005834:	f88e 3000 	strb.w	r3, [lr]
 8005838:	4606      	mov	r6, r0
 800583a:	460f      	mov	r7, r1
 800583c:	d05b      	beq.n	80058f6 <_dtoa_r+0x3a2>
 800583e:	2300      	movs	r3, #0
 8005840:	2200      	movs	r2, #0
 8005842:	f2c4 0324 	movt	r3, #16420	; 0x4024
 8005846:	f003 fd85 	bl	8009354 <__aeabi_dmul>
 800584a:	2200      	movs	r2, #0
 800584c:	2300      	movs	r3, #0
 800584e:	4606      	mov	r6, r0
 8005850:	460f      	mov	r7, r1
 8005852:	f003 ffe7 	bl	8009824 <__aeabi_dcmpeq>
 8005856:	2800      	cmp	r0, #0
 8005858:	f040 8519 	bne.w	800628e <_dtoa_r+0xd3a>
 800585c:	f8dd a020 	ldr.w	sl, [sp, #32]
 8005860:	9809      	ldr	r0, [sp, #36]	; 0x24
 8005862:	9908      	ldr	r1, [sp, #32]
 8005864:	4482      	add	sl, r0
 8005866:	f8cd a00c 	str.w	sl, [sp, #12]
 800586a:	f101 0902 	add.w	r9, r1, #2
 800586e:	e9dd ab06 	ldrd	sl, fp, [sp, #24]
 8005872:	e01a      	b.n	80058aa <_dtoa_r+0x356>
 8005874:	f3af 8000 	nop.w
 8005878:	636f4361 	cmnvs	pc, #-2080374783	; 0x84000001
 800587c:	3fd287a7 	svccc	0x00d287a7
 8005880:	8b60c8b3 	blhi	9837b54 <__RW_LOAD_ADDR__+0x182d6d4>
 8005884:	3fc68a28 	svccc	0x00c68a28
 8005888:	509f79fb 			; <UNDEFINED> instruction: 0x509f79fb
 800588c:	3fd34413 	svccc	0x00d34413
 8005890:	0800a45d 	stmdaeq	r0, {r0, r2, r3, r4, r6, sl, sp, pc}
 8005894:	f003 fd5e 	bl	8009354 <__aeabi_dmul>
 8005898:	2200      	movs	r2, #0
 800589a:	2300      	movs	r3, #0
 800589c:	4606      	mov	r6, r0
 800589e:	460f      	mov	r7, r1
 80058a0:	f003 ffc0 	bl	8009824 <__aeabi_dcmpeq>
 80058a4:	2800      	cmp	r0, #0
 80058a6:	f040 84f2 	bne.w	800628e <_dtoa_r+0xd3a>
 80058aa:	4652      	mov	r2, sl
 80058ac:	465b      	mov	r3, fp
 80058ae:	4630      	mov	r0, r6
 80058b0:	4639      	mov	r1, r7
 80058b2:	f003 fe79 	bl	80095a8 <__aeabi_ddiv>
 80058b6:	464d      	mov	r5, r9
 80058b8:	f003 ffe6 	bl	8009888 <__aeabi_d2iz>
 80058bc:	4680      	mov	r8, r0
 80058be:	f003 fce3 	bl	8009288 <__aeabi_i2d>
 80058c2:	4652      	mov	r2, sl
 80058c4:	465b      	mov	r3, fp
 80058c6:	f003 fd45 	bl	8009354 <__aeabi_dmul>
 80058ca:	4602      	mov	r2, r0
 80058cc:	460b      	mov	r3, r1
 80058ce:	4630      	mov	r0, r6
 80058d0:	4639      	mov	r1, r7
 80058d2:	f003 fb8b 	bl	8008fec <__aeabi_dsub>
 80058d6:	f108 0e30 	add.w	lr, r8, #48	; 0x30
 80058da:	f809 ec01 	strb.w	lr, [r9, #-1]
 80058de:	2300      	movs	r3, #0
 80058e0:	f8dd e00c 	ldr.w	lr, [sp, #12]
 80058e4:	2200      	movs	r2, #0
 80058e6:	f2c4 0324 	movt	r3, #16420	; 0x4024
 80058ea:	45f1      	cmp	r9, lr
 80058ec:	f109 0901 	add.w	r9, r9, #1
 80058f0:	4606      	mov	r6, r0
 80058f2:	460f      	mov	r7, r1
 80058f4:	d1ce      	bne.n	8005894 <_dtoa_r+0x340>
 80058f6:	4632      	mov	r2, r6
 80058f8:	463b      	mov	r3, r7
 80058fa:	4630      	mov	r0, r6
 80058fc:	4639      	mov	r1, r7
 80058fe:	f003 fb77 	bl	8008ff0 <__adddf3>
 8005902:	4606      	mov	r6, r0
 8005904:	460f      	mov	r7, r1
 8005906:	4632      	mov	r2, r6
 8005908:	e9dd 0106 	ldrd	r0, r1, [sp, #24]
 800590c:	463b      	mov	r3, r7
 800590e:	f003 ff93 	bl	8009838 <__aeabi_dcmplt>
 8005912:	2800      	cmp	r0, #0
 8005914:	f000 8570 	beq.w	80063f8 <_dtoa_r+0xea4>
 8005918:	f8dd 9020 	ldr.w	r9, [sp, #32]
 800591c:	9e04      	ldr	r6, [sp, #16]
 800591e:	462a      	mov	r2, r5
 8005920:	f815 8c01 	ldrb.w	r8, [r5, #-1]
 8005924:	9508      	str	r5, [sp, #32]
 8005926:	9616      	str	r6, [sp, #88]	; 0x58
 8005928:	e005      	b.n	8005936 <_dtoa_r+0x3e2>
 800592a:	454b      	cmp	r3, r9
 800592c:	f000 84b8 	beq.w	80062a0 <_dtoa_r+0xd4c>
 8005930:	f813 8c01 	ldrb.w	r8, [r3, #-1]
 8005934:	461a      	mov	r2, r3
 8005936:	f1b8 0f39 	cmp.w	r8, #57	; 0x39
 800593a:	f102 33ff 	add.w	r3, r2, #4294967295
 800593e:	d0f4      	beq.n	800592a <_dtoa_r+0x3d6>
 8005940:	9e16      	ldr	r6, [sp, #88]	; 0x58
 8005942:	9208      	str	r2, [sp, #32]
 8005944:	f108 0201 	add.w	r2, r8, #1
 8005948:	9604      	str	r6, [sp, #16]
 800594a:	b2d2      	uxtb	r2, r2
 800594c:	701a      	strb	r2, [r3, #0]
 800594e:	e0b1      	b.n	8005ab4 <_dtoa_r+0x560>
 8005950:	9e0d      	ldr	r6, [sp, #52]	; 0x34
 8005952:	2e00      	cmp	r6, #0
 8005954:	f040 80f1 	bne.w	8005b3a <_dtoa_r+0x5e6>
 8005958:	9e0c      	ldr	r6, [sp, #48]	; 0x30
 800595a:	9d0a      	ldr	r5, [sp, #40]	; 0x28
 800595c:	f8dd 8034 	ldr.w	r8, [sp, #52]	; 0x34
 8005960:	9806      	ldr	r0, [sp, #24]
 8005962:	2800      	cmp	r0, #0
 8005964:	bfc8      	it	gt
 8005966:	2d00      	cmpgt	r5, #0
 8005968:	dd09      	ble.n	800597e <_dtoa_r+0x42a>
 800596a:	4603      	mov	r3, r0
 800596c:	990a      	ldr	r1, [sp, #40]	; 0x28
 800596e:	42ab      	cmp	r3, r5
 8005970:	bfa8      	it	ge
 8005972:	462b      	movge	r3, r5
 8005974:	1aed      	subs	r5, r5, r3
 8005976:	1ac9      	subs	r1, r1, r3
 8005978:	1ac0      	subs	r0, r0, r3
 800597a:	910a      	str	r1, [sp, #40]	; 0x28
 800597c:	9006      	str	r0, [sp, #24]
 800597e:	9a0c      	ldr	r2, [sp, #48]	; 0x30
 8005980:	2a00      	cmp	r2, #0
 8005982:	dd1c      	ble.n	80059be <_dtoa_r+0x46a>
 8005984:	9b0d      	ldr	r3, [sp, #52]	; 0x34
 8005986:	2b00      	cmp	r3, #0
 8005988:	f000 8479 	beq.w	800627e <_dtoa_r+0xd2a>
 800598c:	2e00      	cmp	r6, #0
 800598e:	dd10      	ble.n	80059b2 <_dtoa_r+0x45e>
 8005990:	4641      	mov	r1, r8
 8005992:	4632      	mov	r2, r6
 8005994:	4620      	mov	r0, r4
 8005996:	f001 fb31 	bl	8006ffc <__pow5mult>
 800599a:	9a0b      	ldr	r2, [sp, #44]	; 0x2c
 800599c:	4680      	mov	r8, r0
 800599e:	4620      	mov	r0, r4
 80059a0:	4641      	mov	r1, r8
 80059a2:	f001 fa8b 	bl	8006ebc <__multiply>
 80059a6:	990b      	ldr	r1, [sp, #44]	; 0x2c
 80059a8:	4607      	mov	r7, r0
 80059aa:	4620      	mov	r0, r4
 80059ac:	f001 f984 	bl	8006cb8 <_Bfree>
 80059b0:	970b      	str	r7, [sp, #44]	; 0x2c
 80059b2:	f8dd e030 	ldr.w	lr, [sp, #48]	; 0x30
 80059b6:	ebbe 0206 	subs.w	r2, lr, r6
 80059ba:	f040 84a7 	bne.w	800630c <_dtoa_r+0xdb8>
 80059be:	4620      	mov	r0, r4
 80059c0:	2101      	movs	r1, #1
 80059c2:	f001 fa71 	bl	8006ea8 <__i2b>
 80059c6:	4606      	mov	r6, r0
 80059c8:	980e      	ldr	r0, [sp, #56]	; 0x38
 80059ca:	2800      	cmp	r0, #0
 80059cc:	dd05      	ble.n	80059da <_dtoa_r+0x486>
 80059ce:	4631      	mov	r1, r6
 80059d0:	4620      	mov	r0, r4
 80059d2:	9a0e      	ldr	r2, [sp, #56]	; 0x38
 80059d4:	f001 fb12 	bl	8006ffc <__pow5mult>
 80059d8:	4606      	mov	r6, r0
 80059da:	9924      	ldr	r1, [sp, #144]	; 0x90
 80059dc:	2901      	cmp	r1, #1
 80059de:	f340 8390 	ble.w	8006102 <_dtoa_r+0xbae>
 80059e2:	2700      	movs	r7, #0
 80059e4:	980e      	ldr	r0, [sp, #56]	; 0x38
 80059e6:	2800      	cmp	r0, #0
 80059e8:	f040 836c 	bne.w	80060c4 <_dtoa_r+0xb70>
 80059ec:	2001      	movs	r0, #1
 80059ee:	9b06      	ldr	r3, [sp, #24]
 80059f0:	4403      	add	r3, r0
 80059f2:	f013 031f 	ands.w	r3, r3, #31
 80059f6:	f000 8293 	beq.w	8005f20 <_dtoa_r+0x9cc>
 80059fa:	f1c3 0220 	rsb	r2, r3, #32
 80059fe:	2a04      	cmp	r2, #4
 8005a00:	f340 8568 	ble.w	80064d4 <_dtoa_r+0xf80>
 8005a04:	f1c3 031c 	rsb	r3, r3, #28
 8005a08:	990a      	ldr	r1, [sp, #40]	; 0x28
 8005a0a:	9a06      	ldr	r2, [sp, #24]
 8005a0c:	441d      	add	r5, r3
 8005a0e:	4419      	add	r1, r3
 8005a10:	910a      	str	r1, [sp, #40]	; 0x28
 8005a12:	441a      	add	r2, r3
 8005a14:	9206      	str	r2, [sp, #24]
 8005a16:	990a      	ldr	r1, [sp, #40]	; 0x28
 8005a18:	2900      	cmp	r1, #0
 8005a1a:	dd05      	ble.n	8005a28 <_dtoa_r+0x4d4>
 8005a1c:	990b      	ldr	r1, [sp, #44]	; 0x2c
 8005a1e:	4620      	mov	r0, r4
 8005a20:	9a0a      	ldr	r2, [sp, #40]	; 0x28
 8005a22:	f001 fb47 	bl	80070b4 <__lshift>
 8005a26:	900b      	str	r0, [sp, #44]	; 0x2c
 8005a28:	9a06      	ldr	r2, [sp, #24]
 8005a2a:	2a00      	cmp	r2, #0
 8005a2c:	dd04      	ble.n	8005a38 <_dtoa_r+0x4e4>
 8005a2e:	4631      	mov	r1, r6
 8005a30:	4620      	mov	r0, r4
 8005a32:	f001 fb3f 	bl	80070b4 <__lshift>
 8005a36:	4606      	mov	r6, r0
 8005a38:	9b0f      	ldr	r3, [sp, #60]	; 0x3c
 8005a3a:	2b00      	cmp	r3, #0
 8005a3c:	f040 8321 	bne.w	8006082 <_dtoa_r+0xb2e>
 8005a40:	9824      	ldr	r0, [sp, #144]	; 0x90
 8005a42:	9909      	ldr	r1, [sp, #36]	; 0x24
 8005a44:	2802      	cmp	r0, #2
 8005a46:	bfd4      	ite	le
 8005a48:	2300      	movle	r3, #0
 8005a4a:	2301      	movgt	r3, #1
 8005a4c:	2900      	cmp	r1, #0
 8005a4e:	bfc8      	it	gt
 8005a50:	2300      	movgt	r3, #0
 8005a52:	2b00      	cmp	r3, #0
 8005a54:	f000 821a 	beq.w	8005e8c <_dtoa_r+0x938>
 8005a58:	9809      	ldr	r0, [sp, #36]	; 0x24
 8005a5a:	2800      	cmp	r0, #0
 8005a5c:	f040 820f 	bne.w	8005e7e <_dtoa_r+0x92a>
 8005a60:	4631      	mov	r1, r6
 8005a62:	4603      	mov	r3, r0
 8005a64:	2205      	movs	r2, #5
 8005a66:	4620      	mov	r0, r4
 8005a68:	f001 f942 	bl	8006cf0 <__multadd>
 8005a6c:	4606      	mov	r6, r0
 8005a6e:	980b      	ldr	r0, [sp, #44]	; 0x2c
 8005a70:	4631      	mov	r1, r6
 8005a72:	f001 fb7b 	bl	800716c <__mcmp>
 8005a76:	2800      	cmp	r0, #0
 8005a78:	f340 8201 	ble.w	8005e7e <_dtoa_r+0x92a>
 8005a7c:	f8dd 9020 	ldr.w	r9, [sp, #32]
 8005a80:	2500      	movs	r5, #0
 8005a82:	9a04      	ldr	r2, [sp, #16]
 8005a84:	2331      	movs	r3, #49	; 0x31
 8005a86:	3201      	adds	r2, #1
 8005a88:	f889 3000 	strb.w	r3, [r9]
 8005a8c:	9204      	str	r2, [sp, #16]
 8005a8e:	f109 0301 	add.w	r3, r9, #1
 8005a92:	9308      	str	r3, [sp, #32]
 8005a94:	4631      	mov	r1, r6
 8005a96:	4620      	mov	r0, r4
 8005a98:	f001 f90e 	bl	8006cb8 <_Bfree>
 8005a9c:	f1b8 0f00 	cmp.w	r8, #0
 8005aa0:	d008      	beq.n	8005ab4 <_dtoa_r+0x560>
 8005aa2:	4545      	cmp	r5, r8
 8005aa4:	bf18      	it	ne
 8005aa6:	2d00      	cmpne	r5, #0
 8005aa8:	f040 824a 	bne.w	8005f40 <_dtoa_r+0x9ec>
 8005aac:	4641      	mov	r1, r8
 8005aae:	4620      	mov	r0, r4
 8005ab0:	f001 f902 	bl	8006cb8 <_Bfree>
 8005ab4:	4620      	mov	r0, r4
 8005ab6:	990b      	ldr	r1, [sp, #44]	; 0x2c
 8005ab8:	f001 f8fe 	bl	8006cb8 <_Bfree>
 8005abc:	9e04      	ldr	r6, [sp, #16]
 8005abe:	2200      	movs	r2, #0
 8005ac0:	4648      	mov	r0, r9
 8005ac2:	1c73      	adds	r3, r6, #1
 8005ac4:	9e08      	ldr	r6, [sp, #32]
 8005ac6:	7032      	strb	r2, [r6, #0]
 8005ac8:	9e26      	ldr	r6, [sp, #152]	; 0x98
 8005aca:	6033      	str	r3, [r6, #0]
 8005acc:	9e28      	ldr	r6, [sp, #160]	; 0xa0
 8005ace:	2e00      	cmp	r6, #0
 8005ad0:	f43f ad81 	beq.w	80055d6 <_dtoa_r+0x82>
 8005ad4:	9808      	ldr	r0, [sp, #32]
 8005ad6:	6030      	str	r0, [r6, #0]
 8005ad8:	4648      	mov	r0, r9
 8005ada:	b01b      	add	sp, #108	; 0x6c
 8005adc:	e8bd 8ff0 	ldmia.w	sp!, {r4, r5, r6, r7, r8, r9, sl, fp, pc}
 8005ae0:	2010      	movs	r0, #16
 8005ae2:	f000 fd4b 	bl	800657c <malloc>
 8005ae6:	6260      	str	r0, [r4, #36]	; 0x24
 8005ae8:	6046      	str	r6, [r0, #4]
 8005aea:	6086      	str	r6, [r0, #8]
 8005aec:	6006      	str	r6, [r0, #0]
 8005aee:	60c6      	str	r6, [r0, #12]
 8005af0:	e548      	b.n	8005584 <_dtoa_r+0x30>
 8005af2:	9e0a      	ldr	r6, [sp, #40]	; 0x28
 8005af4:	f8dd e010 	ldr.w	lr, [sp, #16]
 8005af8:	ebce 0606 	rsb	r6, lr, r6
 8005afc:	960a      	str	r6, [sp, #40]	; 0x28
 8005afe:	f1ce 0600 	rsb	r6, lr, #0
 8005b02:	960c      	str	r6, [sp, #48]	; 0x30
 8005b04:	2600      	movs	r6, #0
 8005b06:	960e      	str	r6, [sp, #56]	; 0x38
 8005b08:	e60a      	b.n	8005720 <_dtoa_r+0x1cc>
 8005b0a:	9804      	ldr	r0, [sp, #16]
 8005b0c:	f003 fbbc 	bl	8009288 <__aeabi_i2d>
 8005b10:	4632      	mov	r2, r6
 8005b12:	463b      	mov	r3, r7
 8005b14:	f003 fe86 	bl	8009824 <__aeabi_dcmpeq>
 8005b18:	2800      	cmp	r0, #0
 8005b1a:	f47f add0 	bne.w	80056be <_dtoa_r+0x16a>
 8005b1e:	9e04      	ldr	r6, [sp, #16]
 8005b20:	3e01      	subs	r6, #1
 8005b22:	9604      	str	r6, [sp, #16]
 8005b24:	e5cb      	b.n	80056be <_dtoa_r+0x16a>
 8005b26:	900f      	str	r0, [sp, #60]	; 0x3c
 8005b28:	e5e2      	b.n	80056f0 <_dtoa_r+0x19c>
 8005b2a:	f64f 30ee 	movw	r0, #64494	; 0xfbee
 8005b2e:	f6cf 70ff 	movt	r0, #65535	; 0xffff
 8005b32:	1b40      	subs	r0, r0, r5
 8005b34:	fa0a f000 	lsl.w	r0, sl, r0
 8005b38:	e58b      	b.n	8005652 <_dtoa_r+0xfe>
 8005b3a:	9e24      	ldr	r6, [sp, #144]	; 0x90
 8005b3c:	2e01      	cmp	r6, #1
 8005b3e:	f340 8415 	ble.w	800636c <_dtoa_r+0xe18>
 8005b42:	9809      	ldr	r0, [sp, #36]	; 0x24
 8005b44:	990c      	ldr	r1, [sp, #48]	; 0x30
 8005b46:	1e46      	subs	r6, r0, #1
 8005b48:	9809      	ldr	r0, [sp, #36]	; 0x24
 8005b4a:	42b1      	cmp	r1, r6
 8005b4c:	bfaf      	iteee	ge
 8005b4e:	ebc6 0601 	rsbge	r6, r6, r1
 8005b52:	9a0c      	ldrlt	r2, [sp, #48]	; 0x30
 8005b54:	960c      	strlt	r6, [sp, #48]	; 0x30
 8005b56:	ebc2 0306 	rsblt	r3, r2, r6
 8005b5a:	bfbf      	itttt	lt
 8005b5c:	9e0e      	ldrlt	r6, [sp, #56]	; 0x38
 8005b5e:	18f6      	addlt	r6, r6, r3
 8005b60:	960e      	strlt	r6, [sp, #56]	; 0x38
 8005b62:	2600      	movlt	r6, #0
 8005b64:	2800      	cmp	r0, #0
 8005b66:	bfb9      	ittee	lt
 8005b68:	2300      	movlt	r3, #0
 8005b6a:	990a      	ldrlt	r1, [sp, #40]	; 0x28
 8005b6c:	9d0a      	ldrge	r5, [sp, #40]	; 0x28
 8005b6e:	9b09      	ldrge	r3, [sp, #36]	; 0x24
 8005b70:	bfb8      	it	lt
 8005b72:	ebc0 0501 	rsblt	r5, r0, r1
 8005b76:	9a0a      	ldr	r2, [sp, #40]	; 0x28
 8005b78:	4620      	mov	r0, r4
 8005b7a:	f8dd e018 	ldr.w	lr, [sp, #24]
 8005b7e:	2101      	movs	r1, #1
 8005b80:	441a      	add	r2, r3
 8005b82:	920a      	str	r2, [sp, #40]	; 0x28
 8005b84:	449e      	add	lr, r3
 8005b86:	f8cd e018 	str.w	lr, [sp, #24]
 8005b8a:	f001 f98d 	bl	8006ea8 <__i2b>
 8005b8e:	4680      	mov	r8, r0
 8005b90:	e6e6      	b.n	8005960 <_dtoa_r+0x40c>
 8005b92:	2600      	movs	r6, #0
 8005b94:	960d      	str	r6, [sp, #52]	; 0x34
 8005b96:	9e04      	ldr	r6, [sp, #16]
 8005b98:	f8dd e094 	ldr.w	lr, [sp, #148]	; 0x94
 8005b9c:	44b6      	add	lr, r6
 8005b9e:	f8cd e050 	str.w	lr, [sp, #80]	; 0x50
 8005ba2:	f10e 0601 	add.w	r6, lr, #1
 8005ba6:	9609      	str	r6, [sp, #36]	; 0x24
 8005ba8:	2e00      	cmp	r6, #0
 8005baa:	f340 8359 	ble.w	8006260 <_dtoa_r+0xd0c>
 8005bae:	9e09      	ldr	r6, [sp, #36]	; 0x24
 8005bb0:	2e0e      	cmp	r6, #14
 8005bb2:	bf8c      	ite	hi
 8005bb4:	2500      	movhi	r5, #0
 8005bb6:	f005 0501 	andls.w	r5, r5, #1
 8005bba:	4637      	mov	r7, r6
 8005bbc:	6a66      	ldr	r6, [r4, #36]	; 0x24
 8005bbe:	2f17      	cmp	r7, #23
 8005bc0:	f04f 0100 	mov.w	r1, #0
 8005bc4:	6071      	str	r1, [r6, #4]
 8005bc6:	d909      	bls.n	8005bdc <_dtoa_r+0x688>
 8005bc8:	2201      	movs	r2, #1
 8005bca:	2304      	movs	r3, #4
 8005bcc:	005b      	lsls	r3, r3, #1
 8005bce:	4611      	mov	r1, r2
 8005bd0:	f103 0014 	add.w	r0, r3, #20
 8005bd4:	3201      	adds	r2, #1
 8005bd6:	42b8      	cmp	r0, r7
 8005bd8:	d9f8      	bls.n	8005bcc <_dtoa_r+0x678>
 8005bda:	6071      	str	r1, [r6, #4]
 8005bdc:	4620      	mov	r0, r4
 8005bde:	f001 f835 	bl	8006c4c <_Balloc>
 8005be2:	6a63      	ldr	r3, [r4, #36]	; 0x24
 8005be4:	6030      	str	r0, [r6, #0]
 8005be6:	681b      	ldr	r3, [r3, #0]
 8005be8:	9308      	str	r3, [sp, #32]
 8005bea:	2d00      	cmp	r5, #0
 8005bec:	f43f ade5 	beq.w	80057ba <_dtoa_r+0x266>
 8005bf0:	9e04      	ldr	r6, [sp, #16]
 8005bf2:	e9cd ab12 	strd	sl, fp, [sp, #72]	; 0x48
 8005bf6:	2e00      	cmp	r6, #0
 8005bf8:	f340 81ab 	ble.w	8005f52 <_dtoa_r+0x9fe>
 8005bfc:	f006 020f 	and.w	r2, r6, #15
 8005c00:	f24a 0358 	movw	r3, #41048	; 0xa058
 8005c04:	1135      	asrs	r5, r6, #4
 8005c06:	f6c0 0300 	movt	r3, #2048	; 0x800
 8005c0a:	eb03 03c2 	add.w	r3, r3, r2, lsl #3
 8005c0e:	06e9      	lsls	r1, r5, #27
 8005c10:	e9d3 6700 	ldrd	r6, r7, [r3]
 8005c14:	f140 818f 	bpl.w	8005f36 <_dtoa_r+0x9e2>
 8005c18:	f24a 1348 	movw	r3, #41288	; 0xa148
 8005c1c:	4650      	mov	r0, sl
 8005c1e:	f6c0 0300 	movt	r3, #2048	; 0x800
 8005c22:	4659      	mov	r1, fp
 8005c24:	f005 050f 	and.w	r5, r5, #15
 8005c28:	f04f 0803 	mov.w	r8, #3
 8005c2c:	e9d3 2308 	ldrd	r2, r3, [r3, #32]
 8005c30:	f003 fcba 	bl	80095a8 <__aeabi_ddiv>
 8005c34:	4682      	mov	sl, r0
 8005c36:	468b      	mov	fp, r1
 8005c38:	b19d      	cbz	r5, 8005c62 <_dtoa_r+0x70e>
 8005c3a:	f24a 1948 	movw	r9, #41288	; 0xa148
 8005c3e:	f6c0 0900 	movt	r9, #2048	; 0x800
 8005c42:	07ea      	lsls	r2, r5, #31
 8005c44:	4630      	mov	r0, r6
 8005c46:	4639      	mov	r1, r7
 8005c48:	d507      	bpl.n	8005c5a <_dtoa_r+0x706>
 8005c4a:	e9d9 2300 	ldrd	r2, r3, [r9]
 8005c4e:	f108 0801 	add.w	r8, r8, #1
 8005c52:	f003 fb7f 	bl	8009354 <__aeabi_dmul>
 8005c56:	4606      	mov	r6, r0
 8005c58:	460f      	mov	r7, r1
 8005c5a:	106d      	asrs	r5, r5, #1
 8005c5c:	f109 0908 	add.w	r9, r9, #8
 8005c60:	d1ef      	bne.n	8005c42 <_dtoa_r+0x6ee>
 8005c62:	4632      	mov	r2, r6
 8005c64:	463b      	mov	r3, r7
 8005c66:	4650      	mov	r0, sl
 8005c68:	4659      	mov	r1, fp
 8005c6a:	f003 fc9d 	bl	80095a8 <__aeabi_ddiv>
 8005c6e:	4606      	mov	r6, r0
 8005c70:	460f      	mov	r7, r1
 8005c72:	980f      	ldr	r0, [sp, #60]	; 0x3c
 8005c74:	b150      	cbz	r0, 8005c8c <_dtoa_r+0x738>
 8005c76:	2300      	movs	r3, #0
 8005c78:	4630      	mov	r0, r6
 8005c7a:	4639      	mov	r1, r7
 8005c7c:	2200      	movs	r2, #0
 8005c7e:	f6c3 73f0 	movt	r3, #16368	; 0x3ff0
 8005c82:	f003 fdd9 	bl	8009838 <__aeabi_dcmplt>
 8005c86:	2800      	cmp	r0, #0
 8005c88:	f040 8315 	bne.w	80062b6 <_dtoa_r+0xd62>
 8005c8c:	4640      	mov	r0, r8
 8005c8e:	f003 fafb 	bl	8009288 <__aeabi_i2d>
 8005c92:	4632      	mov	r2, r6
 8005c94:	463b      	mov	r3, r7
 8005c96:	f003 fb5d 	bl	8009354 <__aeabi_dmul>
 8005c9a:	2300      	movs	r3, #0
 8005c9c:	2200      	movs	r2, #0
 8005c9e:	f2c4 031c 	movt	r3, #16412	; 0x401c
 8005ca2:	f003 f9a5 	bl	8008ff0 <__adddf3>
 8005ca6:	4680      	mov	r8, r0
 8005ca8:	9809      	ldr	r0, [sp, #36]	; 0x24
 8005caa:	f1a1 7950 	sub.w	r9, r1, #54525952	; 0x3400000
 8005cae:	2800      	cmp	r0, #0
 8005cb0:	f000 80c9 	beq.w	8005e46 <_dtoa_r+0x8f2>
 8005cb4:	9904      	ldr	r1, [sp, #16]
 8005cb6:	f8dd c024 	ldr.w	ip, [sp, #36]	; 0x24
 8005cba:	9116      	str	r1, [sp, #88]	; 0x58
 8005cbc:	9a0d      	ldr	r2, [sp, #52]	; 0x34
 8005cbe:	2a00      	cmp	r2, #0
 8005cc0:	f000 8179 	beq.w	8005fb6 <_dtoa_r+0xa62>
 8005cc4:	f24a 0358 	movw	r3, #41048	; 0xa058
 8005cc8:	9a08      	ldr	r2, [sp, #32]
 8005cca:	f6c0 0300 	movt	r3, #2048	; 0x800
 8005cce:	2100      	movs	r1, #0
 8005cd0:	eb03 03cc 	add.w	r3, r3, ip, lsl #3
 8005cd4:	2000      	movs	r0, #0
 8005cd6:	f6c3 71e0 	movt	r1, #16352	; 0x3fe0
 8005cda:	1c55      	adds	r5, r2, #1
 8005cdc:	e953 2302 	ldrd	r2, r3, [r3, #-8]
 8005ce0:	f8cd c008 	str.w	ip, [sp, #8]
 8005ce4:	f003 fc60 	bl	80095a8 <__aeabi_ddiv>
 8005ce8:	4642      	mov	r2, r8
 8005cea:	464b      	mov	r3, r9
 8005cec:	f003 f97e 	bl	8008fec <__aeabi_dsub>
 8005cf0:	4682      	mov	sl, r0
 8005cf2:	468b      	mov	fp, r1
 8005cf4:	4630      	mov	r0, r6
 8005cf6:	4639      	mov	r1, r7
 8005cf8:	f003 fdc6 	bl	8009888 <__aeabi_d2iz>
 8005cfc:	4680      	mov	r8, r0
 8005cfe:	f003 fac3 	bl	8009288 <__aeabi_i2d>
 8005d02:	f108 0830 	add.w	r8, r8, #48	; 0x30
 8005d06:	fa5f f888 	uxtb.w	r8, r8
 8005d0a:	4602      	mov	r2, r0
 8005d0c:	460b      	mov	r3, r1
 8005d0e:	4630      	mov	r0, r6
 8005d10:	4639      	mov	r1, r7
 8005d12:	f003 f96b 	bl	8008fec <__aeabi_dsub>
 8005d16:	f8dd e020 	ldr.w	lr, [sp, #32]
 8005d1a:	f88e 8000 	strb.w	r8, [lr]
 8005d1e:	4606      	mov	r6, r0
 8005d20:	460f      	mov	r7, r1
 8005d22:	4650      	mov	r0, sl
 8005d24:	4659      	mov	r1, fp
 8005d26:	4632      	mov	r2, r6
 8005d28:	463b      	mov	r3, r7
 8005d2a:	f003 fda3 	bl	8009874 <__aeabi_dcmpgt>
 8005d2e:	2800      	cmp	r0, #0
 8005d30:	f040 83c2 	bne.w	80064b8 <_dtoa_r+0xf64>
 8005d34:	2100      	movs	r1, #0
 8005d36:	4632      	mov	r2, r6
 8005d38:	463b      	mov	r3, r7
 8005d3a:	2000      	movs	r0, #0
 8005d3c:	f6c3 71f0 	movt	r1, #16368	; 0x3ff0
 8005d40:	f003 f954 	bl	8008fec <__aeabi_dsub>
 8005d44:	4602      	mov	r2, r0
 8005d46:	460b      	mov	r3, r1
 8005d48:	4650      	mov	r0, sl
 8005d4a:	4659      	mov	r1, fp
 8005d4c:	f003 fd92 	bl	8009874 <__aeabi_dcmpgt>
 8005d50:	f8dd c008 	ldr.w	ip, [sp, #8]
 8005d54:	2800      	cmp	r0, #0
 8005d56:	f040 8314 	bne.w	8006382 <_dtoa_r+0xe2e>
 8005d5a:	f1bc 0f01 	cmp.w	ip, #1
 8005d5e:	f340 80f5 	ble.w	8005f4c <_dtoa_r+0x9f8>
 8005d62:	f8dd 9020 	ldr.w	r9, [sp, #32]
 8005d66:	9417      	str	r4, [sp, #92]	; 0x5c
 8005d68:	44e1      	add	r9, ip
 8005d6a:	f8cd 9040 	str.w	r9, [sp, #64]	; 0x40
 8005d6e:	46a9      	mov	r9, r5
 8005d70:	e010      	b.n	8005d94 <_dtoa_r+0x840>
 8005d72:	2100      	movs	r1, #0
 8005d74:	2000      	movs	r0, #0
 8005d76:	f6c3 71f0 	movt	r1, #16368	; 0x3ff0
 8005d7a:	f003 f937 	bl	8008fec <__aeabi_dsub>
 8005d7e:	4652      	mov	r2, sl
 8005d80:	465b      	mov	r3, fp
 8005d82:	f003 fd59 	bl	8009838 <__aeabi_dcmplt>
 8005d86:	2800      	cmp	r0, #0
 8005d88:	f040 82f9 	bne.w	800637e <_dtoa_r+0xe2a>
 8005d8c:	9810      	ldr	r0, [sp, #64]	; 0x40
 8005d8e:	4581      	cmp	r9, r0
 8005d90:	f000 80db 	beq.w	8005f4a <_dtoa_r+0x9f6>
 8005d94:	2300      	movs	r3, #0
 8005d96:	4650      	mov	r0, sl
 8005d98:	4659      	mov	r1, fp
 8005d9a:	2200      	movs	r2, #0
 8005d9c:	f2c4 0324 	movt	r3, #16420	; 0x4024
 8005da0:	f003 fad8 	bl	8009354 <__aeabi_dmul>
 8005da4:	2300      	movs	r3, #0
 8005da6:	2200      	movs	r2, #0
 8005da8:	f2c4 0324 	movt	r3, #16420	; 0x4024
 8005dac:	4682      	mov	sl, r0
 8005dae:	468b      	mov	fp, r1
 8005db0:	4630      	mov	r0, r6
 8005db2:	4639      	mov	r1, r7
 8005db4:	f003 face 	bl	8009354 <__aeabi_dmul>
 8005db8:	460d      	mov	r5, r1
 8005dba:	4604      	mov	r4, r0
 8005dbc:	f003 fd64 	bl	8009888 <__aeabi_d2iz>
 8005dc0:	4680      	mov	r8, r0
 8005dc2:	f003 fa61 	bl	8009288 <__aeabi_i2d>
 8005dc6:	f108 0830 	add.w	r8, r8, #48	; 0x30
 8005dca:	fa5f f888 	uxtb.w	r8, r8
 8005dce:	4602      	mov	r2, r0
 8005dd0:	460b      	mov	r3, r1
 8005dd2:	4620      	mov	r0, r4
 8005dd4:	4629      	mov	r1, r5
 8005dd6:	f003 f909 	bl	8008fec <__aeabi_dsub>
 8005dda:	4652      	mov	r2, sl
 8005ddc:	465b      	mov	r3, fp
 8005dde:	f809 8b01 	strb.w	r8, [r9], #1
 8005de2:	4606      	mov	r6, r0
 8005de4:	460f      	mov	r7, r1
 8005de6:	f003 fd27 	bl	8009838 <__aeabi_dcmplt>
 8005dea:	4632      	mov	r2, r6
 8005dec:	463b      	mov	r3, r7
 8005dee:	2800      	cmp	r0, #0
 8005df0:	d0bf      	beq.n	8005d72 <_dtoa_r+0x81e>
 8005df2:	9e16      	ldr	r6, [sp, #88]	; 0x58
 8005df4:	464d      	mov	r5, r9
 8005df6:	9c17      	ldr	r4, [sp, #92]	; 0x5c
 8005df8:	f8dd 9020 	ldr.w	r9, [sp, #32]
 8005dfc:	9604      	str	r6, [sp, #16]
 8005dfe:	9508      	str	r5, [sp, #32]
 8005e00:	e658      	b.n	8005ab4 <_dtoa_r+0x560>
 8005e02:	2600      	movs	r6, #0
 8005e04:	960d      	str	r6, [sp, #52]	; 0x34
 8005e06:	9825      	ldr	r0, [sp, #148]	; 0x94
 8005e08:	2800      	cmp	r0, #0
 8005e0a:	f340 8233 	ble.w	8006274 <_dtoa_r+0xd20>
 8005e0e:	280e      	cmp	r0, #14
 8005e10:	bf8c      	ite	hi
 8005e12:	2500      	movhi	r5, #0
 8005e14:	f005 0501 	andls.w	r5, r5, #1
 8005e18:	4607      	mov	r7, r0
 8005e1a:	9014      	str	r0, [sp, #80]	; 0x50
 8005e1c:	9009      	str	r0, [sp, #36]	; 0x24
 8005e1e:	e6cd      	b.n	8005bbc <_dtoa_r+0x668>
 8005e20:	2601      	movs	r6, #1
 8005e22:	960d      	str	r6, [sp, #52]	; 0x34
 8005e24:	e7ef      	b.n	8005e06 <_dtoa_r+0x8b2>
 8005e26:	4640      	mov	r0, r8
 8005e28:	f003 fa2e 	bl	8009288 <__aeabi_i2d>
 8005e2c:	4632      	mov	r2, r6
 8005e2e:	463b      	mov	r3, r7
 8005e30:	f003 fa90 	bl	8009354 <__aeabi_dmul>
 8005e34:	2300      	movs	r3, #0
 8005e36:	2200      	movs	r2, #0
 8005e38:	f2c4 031c 	movt	r3, #16412	; 0x401c
 8005e3c:	f003 f8d8 	bl	8008ff0 <__adddf3>
 8005e40:	4680      	mov	r8, r0
 8005e42:	f1a1 7950 	sub.w	r9, r1, #54525952	; 0x3400000
 8005e46:	2300      	movs	r3, #0
 8005e48:	4630      	mov	r0, r6
 8005e4a:	2200      	movs	r2, #0
 8005e4c:	f2c4 0314 	movt	r3, #16404	; 0x4014
 8005e50:	4639      	mov	r1, r7
 8005e52:	f003 f8cb 	bl	8008fec <__aeabi_dsub>
 8005e56:	4642      	mov	r2, r8
 8005e58:	464b      	mov	r3, r9
 8005e5a:	4682      	mov	sl, r0
 8005e5c:	468b      	mov	fp, r1
 8005e5e:	f003 fd09 	bl	8009874 <__aeabi_dcmpgt>
 8005e62:	4606      	mov	r6, r0
 8005e64:	2800      	cmp	r0, #0
 8005e66:	f040 80a3 	bne.w	8005fb0 <_dtoa_r+0xa5c>
 8005e6a:	4642      	mov	r2, r8
 8005e6c:	4650      	mov	r0, sl
 8005e6e:	4659      	mov	r1, fp
 8005e70:	f109 4300 	add.w	r3, r9, #2147483648	; 0x80000000
 8005e74:	f003 fce0 	bl	8009838 <__aeabi_dcmplt>
 8005e78:	2800      	cmp	r0, #0
 8005e7a:	d067      	beq.n	8005f4c <_dtoa_r+0x9f8>
 8005e7c:	46b0      	mov	r8, r6
 8005e7e:	9925      	ldr	r1, [sp, #148]	; 0x94
 8005e80:	2500      	movs	r5, #0
 8005e82:	f8dd 9020 	ldr.w	r9, [sp, #32]
 8005e86:	43c9      	mvns	r1, r1
 8005e88:	9104      	str	r1, [sp, #16]
 8005e8a:	e603      	b.n	8005a94 <_dtoa_r+0x540>
 8005e8c:	980d      	ldr	r0, [sp, #52]	; 0x34
 8005e8e:	2800      	cmp	r0, #0
 8005e90:	f040 8164 	bne.w	800615c <_dtoa_r+0xc08>
 8005e94:	2500      	movs	r5, #0
 8005e96:	f8dd a024 	ldr.w	sl, [sp, #36]	; 0x24
 8005e9a:	f8dd b020 	ldr.w	fp, [sp, #32]
 8005e9e:	f8dd 902c 	ldr.w	r9, [sp, #44]	; 0x2c
 8005ea2:	e002      	b.n	8005eaa <_dtoa_r+0x956>
 8005ea4:	f000 ff24 	bl	8006cf0 <__multadd>
 8005ea8:	4681      	mov	r9, r0
 8005eaa:	4631      	mov	r1, r6
 8005eac:	4648      	mov	r0, r9
 8005eae:	f7ff faab 	bl	8005408 <quorem>
 8005eb2:	4649      	mov	r1, r9
 8005eb4:	220a      	movs	r2, #10
 8005eb6:	2300      	movs	r3, #0
 8005eb8:	f100 0730 	add.w	r7, r0, #48	; 0x30
 8005ebc:	f80b 7005 	strb.w	r7, [fp, r5]
 8005ec0:	3501      	adds	r5, #1
 8005ec2:	4620      	mov	r0, r4
 8005ec4:	4555      	cmp	r5, sl
 8005ec6:	dbed      	blt.n	8005ea4 <_dtoa_r+0x950>
 8005ec8:	f8dd b020 	ldr.w	fp, [sp, #32]
 8005ecc:	461d      	mov	r5, r3
 8005ece:	9809      	ldr	r0, [sp, #36]	; 0x24
 8005ed0:	f8cd 902c 	str.w	r9, [sp, #44]	; 0x2c
 8005ed4:	2801      	cmp	r0, #1
 8005ed6:	bfac      	ite	ge
 8005ed8:	4483      	addge	fp, r0
 8005eda:	f10b 0b01 	addlt.w	fp, fp, #1
 8005ede:	990b      	ldr	r1, [sp, #44]	; 0x2c
 8005ee0:	2201      	movs	r2, #1
 8005ee2:	4620      	mov	r0, r4
 8005ee4:	f001 f8e6 	bl	80070b4 <__lshift>
 8005ee8:	4631      	mov	r1, r6
 8005eea:	900b      	str	r0, [sp, #44]	; 0x2c
 8005eec:	f001 f93e 	bl	800716c <__mcmp>
 8005ef0:	2800      	cmp	r0, #0
 8005ef2:	f340 826f 	ble.w	80063d4 <_dtoa_r+0xe80>
 8005ef6:	f81b 2c01 	ldrb.w	r2, [fp, #-1]
 8005efa:	9908      	ldr	r1, [sp, #32]
 8005efc:	e005      	b.n	8005f0a <_dtoa_r+0x9b6>
 8005efe:	428b      	cmp	r3, r1
 8005f00:	f000 8228 	beq.w	8006354 <_dtoa_r+0xe00>
 8005f04:	f813 2c01 	ldrb.w	r2, [r3, #-1]
 8005f08:	469b      	mov	fp, r3
 8005f0a:	2a39      	cmp	r2, #57	; 0x39
 8005f0c:	f10b 33ff 	add.w	r3, fp, #4294967295
 8005f10:	d0f5      	beq.n	8005efe <_dtoa_r+0x9aa>
 8005f12:	3201      	adds	r2, #1
 8005f14:	f8dd 9020 	ldr.w	r9, [sp, #32]
 8005f18:	701a      	strb	r2, [r3, #0]
 8005f1a:	f8cd b020 	str.w	fp, [sp, #32]
 8005f1e:	e5b9      	b.n	8005a94 <_dtoa_r+0x540>
 8005f20:	231c      	movs	r3, #28
 8005f22:	f8dd e028 	ldr.w	lr, [sp, #40]	; 0x28
 8005f26:	441d      	add	r5, r3
 8005f28:	9806      	ldr	r0, [sp, #24]
 8005f2a:	449e      	add	lr, r3
 8005f2c:	f8cd e028 	str.w	lr, [sp, #40]	; 0x28
 8005f30:	4418      	add	r0, r3
 8005f32:	9006      	str	r0, [sp, #24]
 8005f34:	e56f      	b.n	8005a16 <_dtoa_r+0x4c2>
 8005f36:	e9dd ab12 	ldrd	sl, fp, [sp, #72]	; 0x48
 8005f3a:	f04f 0802 	mov.w	r8, #2
 8005f3e:	e67b      	b.n	8005c38 <_dtoa_r+0x6e4>
 8005f40:	4629      	mov	r1, r5
 8005f42:	4620      	mov	r0, r4
 8005f44:	f000 feb8 	bl	8006cb8 <_Bfree>
 8005f48:	e5b0      	b.n	8005aac <_dtoa_r+0x558>
 8005f4a:	9c17      	ldr	r4, [sp, #92]	; 0x5c
 8005f4c:	e9dd ab12 	ldrd	sl, fp, [sp, #72]	; 0x48
 8005f50:	e433      	b.n	80057ba <_dtoa_r+0x266>
 8005f52:	9e04      	ldr	r6, [sp, #16]
 8005f54:	4275      	negs	r5, r6
 8005f56:	2d00      	cmp	r5, #0
 8005f58:	f000 819d 	beq.w	8006296 <_dtoa_r+0xd42>
 8005f5c:	f005 020f 	and.w	r2, r5, #15
 8005f60:	f24a 0358 	movw	r3, #41048	; 0xa058
 8005f64:	f6c0 0300 	movt	r3, #2048	; 0x800
 8005f68:	e9dd 0112 	ldrd	r0, r1, [sp, #72]	; 0x48
 8005f6c:	eb03 03c2 	add.w	r3, r3, r2, lsl #3
 8005f70:	e9d3 2300 	ldrd	r2, r3, [r3]
 8005f74:	f003 f9ee 	bl	8009354 <__aeabi_dmul>
 8005f78:	112d      	asrs	r5, r5, #4
 8005f7a:	4606      	mov	r6, r0
 8005f7c:	460f      	mov	r7, r1
 8005f7e:	f000 8297 	beq.w	80064b0 <_dtoa_r+0xf5c>
 8005f82:	f24a 1948 	movw	r9, #41288	; 0xa148
 8005f86:	f04f 0802 	mov.w	r8, #2
 8005f8a:	f6c0 0900 	movt	r9, #2048	; 0x800
 8005f8e:	07eb      	lsls	r3, r5, #31
 8005f90:	4630      	mov	r0, r6
 8005f92:	4639      	mov	r1, r7
 8005f94:	d507      	bpl.n	8005fa6 <_dtoa_r+0xa52>
 8005f96:	e9d9 2300 	ldrd	r2, r3, [r9]
 8005f9a:	f108 0801 	add.w	r8, r8, #1
 8005f9e:	f003 f9d9 	bl	8009354 <__aeabi_dmul>
 8005fa2:	4606      	mov	r6, r0
 8005fa4:	460f      	mov	r7, r1
 8005fa6:	106d      	asrs	r5, r5, #1
 8005fa8:	f109 0908 	add.w	r9, r9, #8
 8005fac:	d1ef      	bne.n	8005f8e <_dtoa_r+0xa3a>
 8005fae:	e660      	b.n	8005c72 <_dtoa_r+0x71e>
 8005fb0:	2600      	movs	r6, #0
 8005fb2:	46b0      	mov	r8, r6
 8005fb4:	e562      	b.n	8005a7c <_dtoa_r+0x528>
 8005fb6:	f10c 3bff 	add.w	fp, ip, #4294967295
 8005fba:	f24a 0158 	movw	r1, #41048	; 0xa058
 8005fbe:	f6c0 0100 	movt	r1, #2048	; 0x800
 8005fc2:	9808      	ldr	r0, [sp, #32]
 8005fc4:	eb01 01cb 	add.w	r1, r1, fp, lsl #3
 8005fc8:	4642      	mov	r2, r8
 8005fca:	464b      	mov	r3, r9
 8005fcc:	f100 0a01 	add.w	sl, r0, #1
 8005fd0:	e9d1 0100 	ldrd	r0, r1, [r1]
 8005fd4:	f8cd c008 	str.w	ip, [sp, #8]
 8005fd8:	f003 f9bc 	bl	8009354 <__aeabi_dmul>
 8005fdc:	e9cd 0110 	strd	r0, r1, [sp, #64]	; 0x40
 8005fe0:	4639      	mov	r1, r7
 8005fe2:	4630      	mov	r0, r6
 8005fe4:	f003 fc50 	bl	8009888 <__aeabi_d2iz>
 8005fe8:	4605      	mov	r5, r0
 8005fea:	f003 f94d 	bl	8009288 <__aeabi_i2d>
 8005fee:	3530      	adds	r5, #48	; 0x30
 8005ff0:	4602      	mov	r2, r0
 8005ff2:	460b      	mov	r3, r1
 8005ff4:	4630      	mov	r0, r6
 8005ff6:	4639      	mov	r1, r7
 8005ff8:	f002 fff8 	bl	8008fec <__aeabi_dsub>
 8005ffc:	460f      	mov	r7, r1
 8005ffe:	9908      	ldr	r1, [sp, #32]
 8006000:	4606      	mov	r6, r0
 8006002:	700d      	strb	r5, [r1, #0]
 8006004:	f8dd c008 	ldr.w	ip, [sp, #8]
 8006008:	f1bc 0f01 	cmp.w	ip, #1
 800600c:	d022      	beq.n	8006054 <_dtoa_r+0xb00>
 800600e:	9a08      	ldr	r2, [sp, #32]
 8006010:	4630      	mov	r0, r6
 8006012:	4639      	mov	r1, r7
 8006014:	f102 39ff 	add.w	r9, r2, #4294967295
 8006018:	4615      	mov	r5, r2
 800601a:	44e1      	add	r9, ip
 800601c:	2300      	movs	r3, #0
 800601e:	2200      	movs	r2, #0
 8006020:	f2c4 0324 	movt	r3, #16420	; 0x4024
 8006024:	f003 f996 	bl	8009354 <__aeabi_dmul>
 8006028:	460f      	mov	r7, r1
 800602a:	4606      	mov	r6, r0
 800602c:	f003 fc2c 	bl	8009888 <__aeabi_d2iz>
 8006030:	4680      	mov	r8, r0
 8006032:	f003 f929 	bl	8009288 <__aeabi_i2d>
 8006036:	f108 0830 	add.w	r8, r8, #48	; 0x30
 800603a:	4602      	mov	r2, r0
 800603c:	460b      	mov	r3, r1
 800603e:	4630      	mov	r0, r6
 8006040:	4639      	mov	r1, r7
 8006042:	f002 ffd3 	bl	8008fec <__aeabi_dsub>
 8006046:	f805 8f01 	strb.w	r8, [r5, #1]!
 800604a:	454d      	cmp	r5, r9
 800604c:	d1e6      	bne.n	800601c <_dtoa_r+0xac8>
 800604e:	4606      	mov	r6, r0
 8006050:	460f      	mov	r7, r1
 8006052:	44da      	add	sl, fp
 8006054:	2300      	movs	r3, #0
 8006056:	2200      	movs	r2, #0
 8006058:	f6c3 73e0 	movt	r3, #16352	; 0x3fe0
 800605c:	e9dd 0110 	ldrd	r0, r1, [sp, #64]	; 0x40
 8006060:	f002 ffc6 	bl	8008ff0 <__adddf3>
 8006064:	4632      	mov	r2, r6
 8006066:	463b      	mov	r3, r7
 8006068:	f003 fbe6 	bl	8009838 <__aeabi_dcmplt>
 800606c:	2800      	cmp	r0, #0
 800606e:	f000 8154 	beq.w	800631a <_dtoa_r+0xdc6>
 8006072:	f8dd 9020 	ldr.w	r9, [sp, #32]
 8006076:	4652      	mov	r2, sl
 8006078:	f81a 8c01 	ldrb.w	r8, [sl, #-1]
 800607c:	f8cd a020 	str.w	sl, [sp, #32]
 8006080:	e459      	b.n	8005936 <_dtoa_r+0x3e2>
 8006082:	980b      	ldr	r0, [sp, #44]	; 0x2c
 8006084:	4631      	mov	r1, r6
 8006086:	f001 f871 	bl	800716c <__mcmp>
 800608a:	2800      	cmp	r0, #0
 800608c:	f6bf acd8 	bge.w	8005a40 <_dtoa_r+0x4ec>
 8006090:	f8dd e010 	ldr.w	lr, [sp, #16]
 8006094:	4620      	mov	r0, r4
 8006096:	990b      	ldr	r1, [sp, #44]	; 0x2c
 8006098:	220a      	movs	r2, #10
 800609a:	2300      	movs	r3, #0
 800609c:	f10e 3eff 	add.w	lr, lr, #4294967295
 80060a0:	f8cd e010 	str.w	lr, [sp, #16]
 80060a4:	f000 fe24 	bl	8006cf0 <__multadd>
 80060a8:	900b      	str	r0, [sp, #44]	; 0x2c
 80060aa:	980d      	ldr	r0, [sp, #52]	; 0x34
 80060ac:	2800      	cmp	r0, #0
 80060ae:	d141      	bne.n	8006134 <_dtoa_r+0xbe0>
 80060b0:	9914      	ldr	r1, [sp, #80]	; 0x50
 80060b2:	9b14      	ldr	r3, [sp, #80]	; 0x50
 80060b4:	2900      	cmp	r1, #0
 80060b6:	dc03      	bgt.n	80060c0 <_dtoa_r+0xb6c>
 80060b8:	9a24      	ldr	r2, [sp, #144]	; 0x90
 80060ba:	2a02      	cmp	r2, #2
 80060bc:	f300 8207 	bgt.w	80064ce <_dtoa_r+0xf7a>
 80060c0:	9309      	str	r3, [sp, #36]	; 0x24
 80060c2:	e6e7      	b.n	8005e94 <_dtoa_r+0x940>
 80060c4:	6933      	ldr	r3, [r6, #16]
 80060c6:	eb06 0383 	add.w	r3, r6, r3, lsl #2
 80060ca:	6918      	ldr	r0, [r3, #16]
 80060cc:	f000 fea2 	bl	8006e14 <__hi0bits>
 80060d0:	f1c0 0020 	rsb	r0, r0, #32
 80060d4:	e48b      	b.n	80059ee <_dtoa_r+0x49a>
 80060d6:	9e09      	ldr	r6, [sp, #36]	; 0x24
 80060d8:	2e00      	cmp	r6, #0
 80060da:	f040 818b 	bne.w	80063f4 <_dtoa_r+0xea0>
 80060de:	2300      	movs	r3, #0
 80060e0:	2200      	movs	r2, #0
 80060e2:	f2c4 0314 	movt	r3, #16404	; 0x4014
 80060e6:	e9dd 0106 	ldrd	r0, r1, [sp, #24]
 80060ea:	f003 f933 	bl	8009354 <__aeabi_dmul>
 80060ee:	4652      	mov	r2, sl
 80060f0:	465b      	mov	r3, fp
 80060f2:	f003 fbb5 	bl	8009860 <__aeabi_dcmpge>
 80060f6:	9e09      	ldr	r6, [sp, #36]	; 0x24
 80060f8:	46b0      	mov	r8, r6
 80060fa:	2800      	cmp	r0, #0
 80060fc:	f47f aebf 	bne.w	8005e7e <_dtoa_r+0x92a>
 8006100:	e4bc      	b.n	8005a7c <_dtoa_r+0x528>
 8006102:	f1ba 0f00 	cmp.w	sl, #0
 8006106:	f47f ac6c 	bne.w	80059e2 <_dtoa_r+0x48e>
 800610a:	f3cb 0313 	ubfx	r3, fp, #0, #20
 800610e:	4657      	mov	r7, sl
 8006110:	2b00      	cmp	r3, #0
 8006112:	f47f ac67 	bne.w	80059e4 <_dtoa_r+0x490>
 8006116:	f02b 4700 	bic.w	r7, fp, #2147483648	; 0x80000000
 800611a:	0d3f      	lsrs	r7, r7, #20
 800611c:	053f      	lsls	r7, r7, #20
 800611e:	2f00      	cmp	r7, #0
 8006120:	f43f ac60 	beq.w	80059e4 <_dtoa_r+0x490>
 8006124:	9a0a      	ldr	r2, [sp, #40]	; 0x28
 8006126:	2701      	movs	r7, #1
 8006128:	9b06      	ldr	r3, [sp, #24]
 800612a:	3201      	adds	r2, #1
 800612c:	920a      	str	r2, [sp, #40]	; 0x28
 800612e:	3301      	adds	r3, #1
 8006130:	9306      	str	r3, [sp, #24]
 8006132:	e457      	b.n	80059e4 <_dtoa_r+0x490>
 8006134:	2300      	movs	r3, #0
 8006136:	4641      	mov	r1, r8
 8006138:	220a      	movs	r2, #10
 800613a:	4620      	mov	r0, r4
 800613c:	f000 fdd8 	bl	8006cf0 <__multadd>
 8006140:	9a14      	ldr	r2, [sp, #80]	; 0x50
 8006142:	9924      	ldr	r1, [sp, #144]	; 0x90
 8006144:	2a00      	cmp	r2, #0
 8006146:	bfcc      	ite	gt
 8006148:	2300      	movgt	r3, #0
 800614a:	2301      	movle	r3, #1
 800614c:	2902      	cmp	r1, #2
 800614e:	bfd8      	it	le
 8006150:	2300      	movle	r3, #0
 8006152:	4680      	mov	r8, r0
 8006154:	2b00      	cmp	r3, #0
 8006156:	f040 81b6 	bne.w	80064c6 <_dtoa_r+0xf72>
 800615a:	9209      	str	r2, [sp, #36]	; 0x24
 800615c:	2d00      	cmp	r5, #0
 800615e:	dd05      	ble.n	800616c <_dtoa_r+0xc18>
 8006160:	4641      	mov	r1, r8
 8006162:	462a      	mov	r2, r5
 8006164:	4620      	mov	r0, r4
 8006166:	f000 ffa5 	bl	80070b4 <__lshift>
 800616a:	4680      	mov	r8, r0
 800616c:	46c4      	mov	ip, r8
 800616e:	2f00      	cmp	r7, #0
 8006170:	f040 8153 	bne.w	800641a <_dtoa_r+0xec6>
 8006174:	9909      	ldr	r1, [sp, #36]	; 0x24
 8006176:	f00a 0301 	and.w	r3, sl, #1
 800617a:	9a08      	ldr	r2, [sp, #32]
 800617c:	4637      	mov	r7, r6
 800617e:	9808      	ldr	r0, [sp, #32]
 8006180:	46e1      	mov	r9, ip
 8006182:	440a      	add	r2, r1
 8006184:	9309      	str	r3, [sp, #36]	; 0x24
 8006186:	920a      	str	r2, [sp, #40]	; 0x28
 8006188:	1c45      	adds	r5, r0, #1
 800618a:	9e0b      	ldr	r6, [sp, #44]	; 0x2c
 800618c:	e00a      	b.n	80061a4 <_dtoa_r+0xc50>
 800618e:	f000 fdaf 	bl	8006cf0 <__multadd>
 8006192:	4649      	mov	r1, r9
 8006194:	220a      	movs	r2, #10
 8006196:	2300      	movs	r3, #0
 8006198:	4680      	mov	r8, r0
 800619a:	4620      	mov	r0, r4
 800619c:	f000 fda8 	bl	8006cf0 <__multadd>
 80061a0:	4681      	mov	r9, r0
 80061a2:	3501      	adds	r5, #1
 80061a4:	4639      	mov	r1, r7
 80061a6:	4630      	mov	r0, r6
 80061a8:	f7ff f92e 	bl	8005408 <quorem>
 80061ac:	4641      	mov	r1, r8
 80061ae:	4682      	mov	sl, r0
 80061b0:	4630      	mov	r0, r6
 80061b2:	f000 ffdb 	bl	800716c <__mcmp>
 80061b6:	464a      	mov	r2, r9
 80061b8:	4639      	mov	r1, r7
 80061ba:	4683      	mov	fp, r0
 80061bc:	4620      	mov	r0, r4
 80061be:	f000 fff7 	bl	80071b0 <__mdiff>
 80061c2:	f10a 0230 	add.w	r2, sl, #48	; 0x30
 80061c6:	9205      	str	r2, [sp, #20]
 80061c8:	f105 3eff 	add.w	lr, r5, #4294967295
 80061cc:	f8cd e018 	str.w	lr, [sp, #24]
 80061d0:	68c2      	ldr	r2, [r0, #12]
 80061d2:	4603      	mov	r3, r0
 80061d4:	2a00      	cmp	r2, #0
 80061d6:	d13e      	bne.n	8006256 <_dtoa_r+0xd02>
 80061d8:	4619      	mov	r1, r3
 80061da:	4630      	mov	r0, r6
 80061dc:	9302      	str	r3, [sp, #8]
 80061de:	f000 ffc5 	bl	800716c <__mcmp>
 80061e2:	9b02      	ldr	r3, [sp, #8]
 80061e4:	4602      	mov	r2, r0
 80061e6:	4620      	mov	r0, r4
 80061e8:	4619      	mov	r1, r3
 80061ea:	9202      	str	r2, [sp, #8]
 80061ec:	f000 fd64 	bl	8006cb8 <_Bfree>
 80061f0:	9a02      	ldr	r2, [sp, #8]
 80061f2:	9824      	ldr	r0, [sp, #144]	; 0x90
 80061f4:	4310      	orrs	r0, r2
 80061f6:	d103      	bne.n	8006200 <_dtoa_r+0xcac>
 80061f8:	9909      	ldr	r1, [sp, #36]	; 0x24
 80061fa:	2900      	cmp	r1, #0
 80061fc:	f000 814a 	beq.w	8006494 <_dtoa_r+0xf40>
 8006200:	f1bb 0f00 	cmp.w	fp, #0
 8006204:	f2c0 80c3 	blt.w	800638e <_dtoa_r+0xe3a>
 8006208:	9924      	ldr	r1, [sp, #144]	; 0x90
 800620a:	ea5b 0101 	orrs.w	r1, fp, r1
 800620e:	d103      	bne.n	8006218 <_dtoa_r+0xcc4>
 8006210:	9b09      	ldr	r3, [sp, #36]	; 0x24
 8006212:	2b00      	cmp	r3, #0
 8006214:	f000 80bb 	beq.w	800638e <_dtoa_r+0xe3a>
 8006218:	2a00      	cmp	r2, #0
 800621a:	f300 811b 	bgt.w	8006454 <_dtoa_r+0xf00>
 800621e:	9b0a      	ldr	r3, [sp, #40]	; 0x28
 8006220:	46ab      	mov	fp, r5
 8006222:	9a05      	ldr	r2, [sp, #20]
 8006224:	429d      	cmp	r5, r3
 8006226:	f805 2c01 	strb.w	r2, [r5, #-1]
 800622a:	f000 8124 	beq.w	8006476 <_dtoa_r+0xf22>
 800622e:	4631      	mov	r1, r6
 8006230:	220a      	movs	r2, #10
 8006232:	2300      	movs	r3, #0
 8006234:	4620      	mov	r0, r4
 8006236:	f000 fd5b 	bl	8006cf0 <__multadd>
 800623a:	45c8      	cmp	r8, r9
 800623c:	4641      	mov	r1, r8
 800623e:	f04f 020a 	mov.w	r2, #10
 8006242:	f04f 0300 	mov.w	r3, #0
 8006246:	4606      	mov	r6, r0
 8006248:	4620      	mov	r0, r4
 800624a:	d1a0      	bne.n	800618e <_dtoa_r+0xc3a>
 800624c:	f000 fd50 	bl	8006cf0 <__multadd>
 8006250:	4680      	mov	r8, r0
 8006252:	4681      	mov	r9, r0
 8006254:	e7a5      	b.n	80061a2 <_dtoa_r+0xc4e>
 8006256:	2201      	movs	r2, #1
 8006258:	e7c5      	b.n	80061e6 <_dtoa_r+0xc92>
 800625a:	2601      	movs	r6, #1
 800625c:	960d      	str	r6, [sp, #52]	; 0x34
 800625e:	e49a      	b.n	8005b96 <_dtoa_r+0x642>
 8006260:	2e0e      	cmp	r6, #14
 8006262:	bf8c      	ite	hi
 8006264:	2200      	movhi	r2, #0
 8006266:	2201      	movls	r2, #1
 8006268:	6a66      	ldr	r6, [r4, #36]	; 0x24
 800626a:	2300      	movs	r3, #0
 800626c:	4015      	ands	r5, r2
 800626e:	4619      	mov	r1, r3
 8006270:	6073      	str	r3, [r6, #4]
 8006272:	e4b3      	b.n	8005bdc <_dtoa_r+0x688>
 8006274:	2201      	movs	r2, #1
 8006276:	9225      	str	r2, [sp, #148]	; 0x94
 8006278:	9214      	str	r2, [sp, #80]	; 0x50
 800627a:	9209      	str	r2, [sp, #36]	; 0x24
 800627c:	e7f4      	b.n	8006268 <_dtoa_r+0xd14>
 800627e:	990b      	ldr	r1, [sp, #44]	; 0x2c
 8006280:	4620      	mov	r0, r4
 8006282:	9a0c      	ldr	r2, [sp, #48]	; 0x30
 8006284:	f000 feba 	bl	8006ffc <__pow5mult>
 8006288:	900b      	str	r0, [sp, #44]	; 0x2c
 800628a:	f7ff bb98 	b.w	80059be <_dtoa_r+0x46a>
 800628e:	f8dd 9020 	ldr.w	r9, [sp, #32]
 8006292:	9508      	str	r5, [sp, #32]
 8006294:	e40e      	b.n	8005ab4 <_dtoa_r+0x560>
 8006296:	e9dd 6712 	ldrd	r6, r7, [sp, #72]	; 0x48
 800629a:	f04f 0802 	mov.w	r8, #2
 800629e:	e4e8      	b.n	8005c72 <_dtoa_r+0x71e>
 80062a0:	9e16      	ldr	r6, [sp, #88]	; 0x58
 80062a2:	2130      	movs	r1, #48	; 0x30
 80062a4:	9208      	str	r2, [sp, #32]
 80062a6:	2231      	movs	r2, #49	; 0x31
 80062a8:	3601      	adds	r6, #1
 80062aa:	f889 1000 	strb.w	r1, [r9]
 80062ae:	9604      	str	r6, [sp, #16]
 80062b0:	701a      	strb	r2, [r3, #0]
 80062b2:	f7ff bbff 	b.w	8005ab4 <_dtoa_r+0x560>
 80062b6:	9909      	ldr	r1, [sp, #36]	; 0x24
 80062b8:	2900      	cmp	r1, #0
 80062ba:	f43f adb4 	beq.w	8005e26 <_dtoa_r+0x8d2>
 80062be:	9a14      	ldr	r2, [sp, #80]	; 0x50
 80062c0:	2a00      	cmp	r2, #0
 80062c2:	f77f ae43 	ble.w	8005f4c <_dtoa_r+0x9f8>
 80062c6:	2300      	movs	r3, #0
 80062c8:	2200      	movs	r2, #0
 80062ca:	4630      	mov	r0, r6
 80062cc:	4639      	mov	r1, r7
 80062ce:	f2c4 0324 	movt	r3, #16420	; 0x4024
 80062d2:	f003 f83f 	bl	8009354 <__aeabi_dmul>
 80062d6:	9b04      	ldr	r3, [sp, #16]
 80062d8:	3b01      	subs	r3, #1
 80062da:	9316      	str	r3, [sp, #88]	; 0x58
 80062dc:	4606      	mov	r6, r0
 80062de:	f108 0001 	add.w	r0, r8, #1
 80062e2:	460f      	mov	r7, r1
 80062e4:	f002 ffd0 	bl	8009288 <__aeabi_i2d>
 80062e8:	4602      	mov	r2, r0
 80062ea:	460b      	mov	r3, r1
 80062ec:	4630      	mov	r0, r6
 80062ee:	4639      	mov	r1, r7
 80062f0:	f003 f830 	bl	8009354 <__aeabi_dmul>
 80062f4:	2300      	movs	r3, #0
 80062f6:	2200      	movs	r2, #0
 80062f8:	f2c4 031c 	movt	r3, #16412	; 0x401c
 80062fc:	f002 fe78 	bl	8008ff0 <__adddf3>
 8006300:	f8dd c050 	ldr.w	ip, [sp, #80]	; 0x50
 8006304:	4680      	mov	r8, r0
 8006306:	f1a1 7950 	sub.w	r9, r1, #54525952	; 0x3400000
 800630a:	e4d7      	b.n	8005cbc <_dtoa_r+0x768>
 800630c:	990b      	ldr	r1, [sp, #44]	; 0x2c
 800630e:	4620      	mov	r0, r4
 8006310:	f000 fe74 	bl	8006ffc <__pow5mult>
 8006314:	900b      	str	r0, [sp, #44]	; 0x2c
 8006316:	f7ff bb52 	b.w	80059be <_dtoa_r+0x46a>
 800631a:	2100      	movs	r1, #0
 800631c:	e9dd 2310 	ldrd	r2, r3, [sp, #64]	; 0x40
 8006320:	2000      	movs	r0, #0
 8006322:	f6c3 71e0 	movt	r1, #16352	; 0x3fe0
 8006326:	f002 fe61 	bl	8008fec <__aeabi_dsub>
 800632a:	4632      	mov	r2, r6
 800632c:	463b      	mov	r3, r7
 800632e:	f003 faa1 	bl	8009874 <__aeabi_dcmpgt>
 8006332:	2800      	cmp	r0, #0
 8006334:	f43f ae0a 	beq.w	8005f4c <_dtoa_r+0x9f8>
 8006338:	4653      	mov	r3, sl
 800633a:	f10a 3aff 	add.w	sl, sl, #4294967295
 800633e:	f813 2c01 	ldrb.w	r2, [r3, #-1]
 8006342:	2a30      	cmp	r2, #48	; 0x30
 8006344:	d0f8      	beq.n	8006338 <_dtoa_r+0xde4>
 8006346:	9e16      	ldr	r6, [sp, #88]	; 0x58
 8006348:	f8dd 9020 	ldr.w	r9, [sp, #32]
 800634c:	9308      	str	r3, [sp, #32]
 800634e:	9604      	str	r6, [sp, #16]
 8006350:	f7ff bbb0 	b.w	8005ab4 <_dtoa_r+0x560>
 8006354:	f8dd 9020 	ldr.w	r9, [sp, #32]
 8006358:	2331      	movs	r3, #49	; 0x31
 800635a:	9904      	ldr	r1, [sp, #16]
 800635c:	f8cd b020 	str.w	fp, [sp, #32]
 8006360:	3101      	adds	r1, #1
 8006362:	f889 3000 	strb.w	r3, [r9]
 8006366:	9104      	str	r1, [sp, #16]
 8006368:	f7ff bb94 	b.w	8005a94 <_dtoa_r+0x540>
 800636c:	9e15      	ldr	r6, [sp, #84]	; 0x54
 800636e:	2e00      	cmp	r6, #0
 8006370:	d069      	beq.n	8006446 <_dtoa_r+0xef2>
 8006372:	f203 4333 	addw	r3, r3, #1075	; 0x433
 8006376:	9e0c      	ldr	r6, [sp, #48]	; 0x30
 8006378:	9d0a      	ldr	r5, [sp, #40]	; 0x28
 800637a:	f7ff bbfc 	b.w	8005b76 <_dtoa_r+0x622>
 800637e:	9c17      	ldr	r4, [sp, #92]	; 0x5c
 8006380:	464d      	mov	r5, r9
 8006382:	f8dd 9020 	ldr.w	r9, [sp, #32]
 8006386:	462a      	mov	r2, r5
 8006388:	9508      	str	r5, [sp, #32]
 800638a:	f7ff bad4 	b.w	8005936 <_dtoa_r+0x3e2>
 800638e:	2a00      	cmp	r2, #0
 8006390:	960b      	str	r6, [sp, #44]	; 0x2c
 8006392:	46cc      	mov	ip, r9
 8006394:	463e      	mov	r6, r7
 8006396:	9f05      	ldr	r7, [sp, #20]
 8006398:	dd12      	ble.n	80063c0 <_dtoa_r+0xe6c>
 800639a:	990b      	ldr	r1, [sp, #44]	; 0x2c
 800639c:	2201      	movs	r2, #1
 800639e:	4620      	mov	r0, r4
 80063a0:	f8cd 9008 	str.w	r9, [sp, #8]
 80063a4:	f000 fe86 	bl	80070b4 <__lshift>
 80063a8:	4631      	mov	r1, r6
 80063aa:	900b      	str	r0, [sp, #44]	; 0x2c
 80063ac:	f000 fede 	bl	800716c <__mcmp>
 80063b0:	f8dd c008 	ldr.w	ip, [sp, #8]
 80063b4:	2800      	cmp	r0, #0
 80063b6:	dd77      	ble.n	80064a8 <_dtoa_r+0xf54>
 80063b8:	2f39      	cmp	r7, #57	; 0x39
 80063ba:	d062      	beq.n	8006482 <_dtoa_r+0xf2e>
 80063bc:	f10a 0731 	add.w	r7, sl, #49	; 0x31
 80063c0:	9b06      	ldr	r3, [sp, #24]
 80063c2:	4645      	mov	r5, r8
 80063c4:	f8dd 9020 	ldr.w	r9, [sp, #32]
 80063c8:	46e0      	mov	r8, ip
 80063ca:	1c58      	adds	r0, r3, #1
 80063cc:	701f      	strb	r7, [r3, #0]
 80063ce:	9008      	str	r0, [sp, #32]
 80063d0:	f7ff bb60 	b.w	8005a94 <_dtoa_r+0x540>
 80063d4:	d102      	bne.n	80063dc <_dtoa_r+0xe88>
 80063d6:	07fb      	lsls	r3, r7, #31
 80063d8:	f53f ad8d 	bmi.w	8005ef6 <_dtoa_r+0x9a2>
 80063dc:	465b      	mov	r3, fp
 80063de:	f10b 3bff 	add.w	fp, fp, #4294967295
 80063e2:	f813 2c01 	ldrb.w	r2, [r3, #-1]
 80063e6:	2a30      	cmp	r2, #48	; 0x30
 80063e8:	d0f8      	beq.n	80063dc <_dtoa_r+0xe88>
 80063ea:	f8dd 9020 	ldr.w	r9, [sp, #32]
 80063ee:	9308      	str	r3, [sp, #32]
 80063f0:	f7ff bb50 	b.w	8005a94 <_dtoa_r+0x540>
 80063f4:	2600      	movs	r6, #0
 80063f6:	e541      	b.n	8005e7c <_dtoa_r+0x928>
 80063f8:	e9dd 0106 	ldrd	r0, r1, [sp, #24]
 80063fc:	4632      	mov	r2, r6
 80063fe:	463b      	mov	r3, r7
 8006400:	f003 fa10 	bl	8009824 <__aeabi_dcmpeq>
 8006404:	2800      	cmp	r0, #0
 8006406:	f43f af42 	beq.w	800628e <_dtoa_r+0xd3a>
 800640a:	f018 0f01 	tst.w	r8, #1
 800640e:	f8dd 9020 	ldr.w	r9, [sp, #32]
 8006412:	f43f af3e 	beq.w	8006292 <_dtoa_r+0xd3e>
 8006416:	f7ff ba81 	b.w	800591c <_dtoa_r+0x3c8>
 800641a:	f8d8 1004 	ldr.w	r1, [r8, #4]
 800641e:	4620      	mov	r0, r4
 8006420:	f000 fc14 	bl	8006c4c <_Balloc>
 8006424:	f8d8 3010 	ldr.w	r3, [r8, #16]
 8006428:	f108 010c 	add.w	r1, r8, #12
 800642c:	1c9a      	adds	r2, r3, #2
 800642e:	0092      	lsls	r2, r2, #2
 8006430:	4605      	mov	r5, r0
 8006432:	300c      	adds	r0, #12
 8006434:	f000 fbb2 	bl	8006b9c <memcpy>
 8006438:	4620      	mov	r0, r4
 800643a:	4629      	mov	r1, r5
 800643c:	2201      	movs	r2, #1
 800643e:	f000 fe39 	bl	80070b4 <__lshift>
 8006442:	4684      	mov	ip, r0
 8006444:	e696      	b.n	8006174 <_dtoa_r+0xc20>
 8006446:	9b18      	ldr	r3, [sp, #96]	; 0x60
 8006448:	9e0c      	ldr	r6, [sp, #48]	; 0x30
 800644a:	9d0a      	ldr	r5, [sp, #40]	; 0x28
 800644c:	f1c3 0336 	rsb	r3, r3, #54	; 0x36
 8006450:	f7ff bb91 	b.w	8005b76 <_dtoa_r+0x622>
 8006454:	960b      	str	r6, [sp, #44]	; 0x2c
 8006456:	463e      	mov	r6, r7
 8006458:	9f05      	ldr	r7, [sp, #20]
 800645a:	46cc      	mov	ip, r9
 800645c:	2f39      	cmp	r7, #57	; 0x39
 800645e:	d010      	beq.n	8006482 <_dtoa_r+0xf2e>
 8006460:	9b06      	ldr	r3, [sp, #24]
 8006462:	3701      	adds	r7, #1
 8006464:	f8dd 9020 	ldr.w	r9, [sp, #32]
 8006468:	4645      	mov	r5, r8
 800646a:	1c58      	adds	r0, r3, #1
 800646c:	46e0      	mov	r8, ip
 800646e:	701f      	strb	r7, [r3, #0]
 8006470:	9008      	str	r0, [sp, #32]
 8006472:	f7ff bb0f 	b.w	8005a94 <_dtoa_r+0x540>
 8006476:	960b      	str	r6, [sp, #44]	; 0x2c
 8006478:	4645      	mov	r5, r8
 800647a:	463e      	mov	r6, r7
 800647c:	46c8      	mov	r8, r9
 800647e:	9f05      	ldr	r7, [sp, #20]
 8006480:	e52d      	b.n	8005ede <_dtoa_r+0x98a>
 8006482:	9b06      	ldr	r3, [sp, #24]
 8006484:	2239      	movs	r2, #57	; 0x39
 8006486:	4645      	mov	r5, r8
 8006488:	9908      	ldr	r1, [sp, #32]
 800648a:	46e0      	mov	r8, ip
 800648c:	f103 0b01 	add.w	fp, r3, #1
 8006490:	701a      	strb	r2, [r3, #0]
 8006492:	e53a      	b.n	8005f0a <_dtoa_r+0x9b6>
 8006494:	960b      	str	r6, [sp, #44]	; 0x2c
 8006496:	463e      	mov	r6, r7
 8006498:	9f05      	ldr	r7, [sp, #20]
 800649a:	46cc      	mov	ip, r9
 800649c:	2f39      	cmp	r7, #57	; 0x39
 800649e:	d0f0      	beq.n	8006482 <_dtoa_r+0xf2e>
 80064a0:	f1bb 0f00 	cmp.w	fp, #0
 80064a4:	dc8a      	bgt.n	80063bc <_dtoa_r+0xe68>
 80064a6:	e78b      	b.n	80063c0 <_dtoa_r+0xe6c>
 80064a8:	d18a      	bne.n	80063c0 <_dtoa_r+0xe6c>
 80064aa:	07fa      	lsls	r2, r7, #31
 80064ac:	d588      	bpl.n	80063c0 <_dtoa_r+0xe6c>
 80064ae:	e783      	b.n	80063b8 <_dtoa_r+0xe64>
 80064b0:	f04f 0802 	mov.w	r8, #2
 80064b4:	f7ff bbdd 	b.w	8005c72 <_dtoa_r+0x71e>
 80064b8:	9e16      	ldr	r6, [sp, #88]	; 0x58
 80064ba:	f8dd 9020 	ldr.w	r9, [sp, #32]
 80064be:	9508      	str	r5, [sp, #32]
 80064c0:	9604      	str	r6, [sp, #16]
 80064c2:	f7ff baf7 	b.w	8005ab4 <_dtoa_r+0x560>
 80064c6:	9a14      	ldr	r2, [sp, #80]	; 0x50
 80064c8:	9209      	str	r2, [sp, #36]	; 0x24
 80064ca:	f7ff bac5 	b.w	8005a58 <_dtoa_r+0x504>
 80064ce:	9309      	str	r3, [sp, #36]	; 0x24
 80064d0:	f7ff bac2 	b.w	8005a58 <_dtoa_r+0x504>
 80064d4:	f43f aa9f 	beq.w	8005a16 <_dtoa_r+0x4c2>
 80064d8:	f1c3 033c 	rsb	r3, r3, #60	; 0x3c
 80064dc:	e521      	b.n	8005f22 <_dtoa_r+0x9ce>
 80064de:	bf00      	nop

080064e0 <_setlocale_r>:
 80064e0:	b510      	push	{r4, lr}
 80064e2:	4614      	mov	r4, r2
 80064e4:	b13a      	cbz	r2, 80064f6 <_setlocale_r+0x16>
 80064e6:	f24a 4170 	movw	r1, #42096	; 0xa470
 80064ea:	4610      	mov	r0, r2
 80064ec:	f6c0 0100 	movt	r1, #2048	; 0x800
 80064f0:	f001 f884 	bl	80075fc <strcmp>
 80064f4:	b920      	cbnz	r0, 8006500 <_setlocale_r+0x20>
 80064f6:	f24a 4018 	movw	r0, #42008	; 0xa418
 80064fa:	f6c0 0000 	movt	r0, #2048	; 0x800
 80064fe:	bd10      	pop	{r4, pc}
 8006500:	f24a 4118 	movw	r1, #42008	; 0xa418
 8006504:	4620      	mov	r0, r4
 8006506:	f6c0 0100 	movt	r1, #2048	; 0x800
 800650a:	f001 f877 	bl	80075fc <strcmp>
 800650e:	2800      	cmp	r0, #0
 8006510:	d0f1      	beq.n	80064f6 <_setlocale_r+0x16>
 8006512:	f24a 2110 	movw	r1, #41488	; 0xa210
 8006516:	4620      	mov	r0, r4
 8006518:	f6c0 0100 	movt	r1, #2048	; 0x800
 800651c:	f001 f86e 	bl	80075fc <strcmp>
 8006520:	f24a 4318 	movw	r3, #42008	; 0xa418
 8006524:	f6c0 0300 	movt	r3, #2048	; 0x800
 8006528:	2800      	cmp	r0, #0
 800652a:	bf0c      	ite	eq
 800652c:	4618      	moveq	r0, r3
 800652e:	2000      	movne	r0, #0
 8006530:	bd10      	pop	{r4, pc}
 8006532:	bf00      	nop

08006534 <__locale_charset>:
 8006534:	f240 00f4 	movw	r0, #244	; 0xf4
 8006538:	f2c2 0000 	movt	r0, #8192	; 0x2000
 800653c:	4770      	bx	lr
 800653e:	bf00      	nop

08006540 <__locale_mb_cur_max>:
 8006540:	f240 03f4 	movw	r3, #244	; 0xf4
 8006544:	f2c2 0300 	movt	r3, #8192	; 0x2000
 8006548:	6a18      	ldr	r0, [r3, #32]
 800654a:	4770      	bx	lr

0800654c <__locale_msgcharset>:
 800654c:	4800      	ldr	r0, [pc, #0]	; (8006550 <__locale_msgcharset+0x4>)
 800654e:	4770      	bx	lr
 8006550:	20000118 	andcs	r0, r0, r8, lsl r1

08006554 <__locale_cjk_lang>:
 8006554:	2000      	movs	r0, #0
 8006556:	4770      	bx	lr

08006558 <_localeconv_r>:
 8006558:	4800      	ldr	r0, [pc, #0]	; (800655c <_localeconv_r+0x4>)
 800655a:	4770      	bx	lr
 800655c:	20000138 	andcs	r0, r0, r8, lsr r1

08006560 <setlocale>:
 8006560:	f240 0300 	movw	r3, #0
 8006564:	460a      	mov	r2, r1
 8006566:	f2c2 0300 	movt	r3, #8192	; 0x2000
 800656a:	4601      	mov	r1, r0
 800656c:	6818      	ldr	r0, [r3, #0]
 800656e:	f7ff bfb7 	b.w	80064e0 <_setlocale_r>
 8006572:	bf00      	nop

08006574 <localeconv>:
 8006574:	4800      	ldr	r0, [pc, #0]	; (8006578 <localeconv+0x4>)
 8006576:	4770      	bx	lr
 8006578:	20000138 	andcs	r0, r0, r8, lsr r1

0800657c <malloc>:
 800657c:	f240 0300 	movw	r3, #0
 8006580:	4601      	mov	r1, r0
 8006582:	f2c2 0300 	movt	r3, #8192	; 0x2000
 8006586:	6818      	ldr	r0, [r3, #0]
 8006588:	f000 b808 	b.w	800659c <_malloc_r>

0800658c <free>:
 800658c:	f240 0300 	movw	r3, #0
 8006590:	4601      	mov	r1, r0
 8006592:	f2c2 0300 	movt	r3, #8192	; 0x2000
 8006596:	6818      	ldr	r0, [r3, #0]
 8006598:	f001 bff2 	b.w	8008580 <_free_r>

0800659c <_malloc_r>:
 800659c:	e92d 4ff0 	stmdb	sp!, {r4, r5, r6, r7, r8, r9, sl, fp, lr}
 80065a0:	f101 040b 	add.w	r4, r1, #11
 80065a4:	2c16      	cmp	r4, #22
 80065a6:	b083      	sub	sp, #12
 80065a8:	bf8e      	itee	hi
 80065aa:	f024 0407 	bichi.w	r4, r4, #7
 80065ae:	2300      	movls	r3, #0
 80065b0:	2410      	movls	r4, #16
 80065b2:	4607      	mov	r7, r0
 80065b4:	bf88      	it	hi
 80065b6:	0fe3      	lsrhi	r3, r4, #31
 80065b8:	428c      	cmp	r4, r1
 80065ba:	bf2c      	ite	cs
 80065bc:	4619      	movcs	r1, r3
 80065be:	f043 0101 	orrcc.w	r1, r3, #1
 80065c2:	2900      	cmp	r1, #0
 80065c4:	f040 80ba 	bne.w	800673c <_malloc_r+0x1a0>
 80065c8:	f000 fb3c 	bl	8006c44 <__malloc_lock>
 80065cc:	f5b4 7ffc 	cmp.w	r4, #504	; 0x1f8
 80065d0:	d220      	bcs.n	8006614 <_malloc_r+0x78>
 80065d2:	f240 1670 	movw	r6, #368	; 0x170
 80065d6:	ea4f 0cd4 	mov.w	ip, r4, lsr #3
 80065da:	f2c2 0600 	movt	r6, #8192	; 0x2000
 80065de:	eb06 02cc 	add.w	r2, r6, ip, lsl #3
 80065e2:	68d3      	ldr	r3, [r2, #12]
 80065e4:	4293      	cmp	r3, r2
 80065e6:	f000 81f7 	beq.w	80069d8 <_malloc_r+0x43c>
 80065ea:	6859      	ldr	r1, [r3, #4]
 80065ec:	f103 0808 	add.w	r8, r3, #8
 80065f0:	68da      	ldr	r2, [r3, #12]
 80065f2:	4638      	mov	r0, r7
 80065f4:	f021 0403 	bic.w	r4, r1, #3
 80065f8:	6899      	ldr	r1, [r3, #8]
 80065fa:	4423      	add	r3, r4
 80065fc:	685c      	ldr	r4, [r3, #4]
 80065fe:	60ca      	str	r2, [r1, #12]
 8006600:	f044 0401 	orr.w	r4, r4, #1
 8006604:	6091      	str	r1, [r2, #8]
 8006606:	605c      	str	r4, [r3, #4]
 8006608:	f000 fb1e 	bl	8006c48 <__malloc_unlock>
 800660c:	4640      	mov	r0, r8
 800660e:	b003      	add	sp, #12
 8006610:	e8bd 8ff0 	ldmia.w	sp!, {r4, r5, r6, r7, r8, r9, sl, fp, pc}
 8006614:	ea5f 2c54 	movs.w	ip, r4, lsr #9
 8006618:	bf04      	itt	eq
 800661a:	257e      	moveq	r5, #126	; 0x7e
 800661c:	f04f 0c3f 	moveq.w	ip, #63	; 0x3f
 8006620:	f040 8094 	bne.w	800674c <_malloc_r+0x1b0>
 8006624:	f240 1670 	movw	r6, #368	; 0x170
 8006628:	f2c2 0600 	movt	r6, #8192	; 0x2000
 800662c:	eb06 0585 	add.w	r5, r6, r5, lsl #2
 8006630:	68eb      	ldr	r3, [r5, #12]
 8006632:	429d      	cmp	r5, r3
 8006634:	d106      	bne.n	8006644 <_malloc_r+0xa8>
 8006636:	e00d      	b.n	8006654 <_malloc_r+0xb8>
 8006638:	2a00      	cmp	r2, #0
 800663a:	f280 8164 	bge.w	8006906 <_malloc_r+0x36a>
 800663e:	68db      	ldr	r3, [r3, #12]
 8006640:	429d      	cmp	r5, r3
 8006642:	d007      	beq.n	8006654 <_malloc_r+0xb8>
 8006644:	6859      	ldr	r1, [r3, #4]
 8006646:	f021 0103 	bic.w	r1, r1, #3
 800664a:	1b0a      	subs	r2, r1, r4
 800664c:	2a0f      	cmp	r2, #15
 800664e:	ddf3      	ble.n	8006638 <_malloc_r+0x9c>
 8006650:	f10c 3cff 	add.w	ip, ip, #4294967295
 8006654:	f10c 0c01 	add.w	ip, ip, #1
 8006658:	f240 1270 	movw	r2, #368	; 0x170
 800665c:	6933      	ldr	r3, [r6, #16]
 800665e:	f2c2 0200 	movt	r2, #8192	; 0x2000
 8006662:	f102 0e08 	add.w	lr, r2, #8
 8006666:	4573      	cmp	r3, lr
 8006668:	bf08      	it	eq
 800666a:	6851      	ldreq	r1, [r2, #4]
 800666c:	d023      	beq.n	80066b6 <_malloc_r+0x11a>
 800666e:	6858      	ldr	r0, [r3, #4]
 8006670:	f020 0003 	bic.w	r0, r0, #3
 8006674:	1b01      	subs	r1, r0, r4
 8006676:	290f      	cmp	r1, #15
 8006678:	f300 8192 	bgt.w	80069a0 <_malloc_r+0x404>
 800667c:	2900      	cmp	r1, #0
 800667e:	f8c2 e014 	str.w	lr, [r2, #20]
 8006682:	f8c2 e010 	str.w	lr, [r2, #16]
 8006686:	da6c      	bge.n	8006762 <_malloc_r+0x1c6>
 8006688:	f5b0 7f00 	cmp.w	r0, #512	; 0x200
 800668c:	f080 8161 	bcs.w	8006952 <_malloc_r+0x3b6>
 8006690:	08c0      	lsrs	r0, r0, #3
 8006692:	f04f 0801 	mov.w	r8, #1
 8006696:	6851      	ldr	r1, [r2, #4]
 8006698:	eb02 05c0 	add.w	r5, r2, r0, lsl #3
 800669c:	1080      	asrs	r0, r0, #2
 800669e:	fa08 f800 	lsl.w	r8, r8, r0
 80066a2:	ea48 0801 	orr.w	r8, r8, r1
 80066a6:	68a8      	ldr	r0, [r5, #8]
 80066a8:	4641      	mov	r1, r8
 80066aa:	60dd      	str	r5, [r3, #12]
 80066ac:	f8c2 8004 	str.w	r8, [r2, #4]
 80066b0:	6098      	str	r0, [r3, #8]
 80066b2:	60ab      	str	r3, [r5, #8]
 80066b4:	60c3      	str	r3, [r0, #12]
 80066b6:	2201      	movs	r2, #1
 80066b8:	ea4f 03ac 	mov.w	r3, ip, asr #2
 80066bc:	fa02 f303 	lsl.w	r3, r2, r3
 80066c0:	428b      	cmp	r3, r1
 80066c2:	d85c      	bhi.n	800677e <_malloc_r+0x1e2>
 80066c4:	4219      	tst	r1, r3
 80066c6:	d10b      	bne.n	80066e0 <_malloc_r+0x144>
 80066c8:	4093      	lsls	r3, r2
 80066ca:	f02c 0c03 	bic.w	ip, ip, #3
 80066ce:	4219      	tst	r1, r3
 80066d0:	f10c 0c04 	add.w	ip, ip, #4
 80066d4:	d104      	bne.n	80066e0 <_malloc_r+0x144>
 80066d6:	005b      	lsls	r3, r3, #1
 80066d8:	f10c 0c04 	add.w	ip, ip, #4
 80066dc:	4219      	tst	r1, r3
 80066de:	d0fa      	beq.n	80066d6 <_malloc_r+0x13a>
 80066e0:	eb06 08cc 	add.w	r8, r6, ip, lsl #3
 80066e4:	46e1      	mov	r9, ip
 80066e6:	4640      	mov	r0, r8
 80066e8:	68c2      	ldr	r2, [r0, #12]
 80066ea:	4290      	cmp	r0, r2
 80066ec:	d107      	bne.n	80066fe <_malloc_r+0x162>
 80066ee:	e16b      	b.n	80069c8 <_malloc_r+0x42c>
 80066f0:	2900      	cmp	r1, #0
 80066f2:	f280 817b 	bge.w	80069ec <_malloc_r+0x450>
 80066f6:	68d2      	ldr	r2, [r2, #12]
 80066f8:	4290      	cmp	r0, r2
 80066fa:	f000 8165 	beq.w	80069c8 <_malloc_r+0x42c>
 80066fe:	6855      	ldr	r5, [r2, #4]
 8006700:	f025 0503 	bic.w	r5, r5, #3
 8006704:	1b29      	subs	r1, r5, r4
 8006706:	290f      	cmp	r1, #15
 8006708:	ddf2      	ble.n	80066f0 <_malloc_r+0x154>
 800670a:	4690      	mov	r8, r2
 800670c:	68d5      	ldr	r5, [r2, #12]
 800670e:	4638      	mov	r0, r7
 8006710:	1913      	adds	r3, r2, r4
 8006712:	f858 7f08 	ldr.w	r7, [r8, #8]!
 8006716:	f044 0c01 	orr.w	ip, r4, #1
 800671a:	f041 0401 	orr.w	r4, r1, #1
 800671e:	f8c2 c004 	str.w	ip, [r2, #4]
 8006722:	60fd      	str	r5, [r7, #12]
 8006724:	60af      	str	r7, [r5, #8]
 8006726:	6173      	str	r3, [r6, #20]
 8006728:	6133      	str	r3, [r6, #16]
 800672a:	f8c3 e00c 	str.w	lr, [r3, #12]
 800672e:	f8c3 e008 	str.w	lr, [r3, #8]
 8006732:	605c      	str	r4, [r3, #4]
 8006734:	5059      	str	r1, [r3, r1]
 8006736:	f000 fa87 	bl	8006c48 <__malloc_unlock>
 800673a:	e767      	b.n	800660c <_malloc_r+0x70>
 800673c:	f04f 0800 	mov.w	r8, #0
 8006740:	230c      	movs	r3, #12
 8006742:	6003      	str	r3, [r0, #0]
 8006744:	4640      	mov	r0, r8
 8006746:	b003      	add	sp, #12
 8006748:	e8bd 8ff0 	ldmia.w	sp!, {r4, r5, r6, r7, r8, r9, sl, fp, pc}
 800674c:	f1bc 0f04 	cmp.w	ip, #4
 8006750:	f200 80eb 	bhi.w	800692a <_malloc_r+0x38e>
 8006754:	ea4f 1c94 	mov.w	ip, r4, lsr #6
 8006758:	f10c 0c38 	add.w	ip, ip, #56	; 0x38
 800675c:	ea4f 054c 	mov.w	r5, ip, lsl #1
 8006760:	e760      	b.n	8006624 <_malloc_r+0x88>
 8006762:	181a      	adds	r2, r3, r0
 8006764:	f103 0808 	add.w	r8, r3, #8
 8006768:	4638      	mov	r0, r7
 800676a:	6853      	ldr	r3, [r2, #4]
 800676c:	f043 0301 	orr.w	r3, r3, #1
 8006770:	6053      	str	r3, [r2, #4]
 8006772:	f000 fa69 	bl	8006c48 <__malloc_unlock>
 8006776:	4640      	mov	r0, r8
 8006778:	b003      	add	sp, #12
 800677a:	e8bd 8ff0 	ldmia.w	sp!, {r4, r5, r6, r7, r8, r9, sl, fp, pc}
 800677e:	68b5      	ldr	r5, [r6, #8]
 8006780:	686b      	ldr	r3, [r5, #4]
 8006782:	f023 0a03 	bic.w	sl, r3, #3
 8006786:	4554      	cmp	r4, sl
 8006788:	d804      	bhi.n	8006794 <_malloc_r+0x1f8>
 800678a:	ebc4 030a 	rsb	r3, r4, sl
 800678e:	2b0f      	cmp	r3, #15
 8006790:	f300 80a8 	bgt.w	80068e4 <_malloc_r+0x348>
 8006794:	f240 59a0 	movw	r9, #1440	; 0x5a0
 8006798:	f8d6 1408 	ldr.w	r1, [r6, #1032]	; 0x408
 800679c:	f2c2 0900 	movt	r9, #8192	; 0x2000
 80067a0:	4638      	mov	r0, r7
 80067a2:	3101      	adds	r1, #1
 80067a4:	eb05 020a 	add.w	r2, r5, sl
 80067a8:	f8d9 3000 	ldr.w	r3, [r9]
 80067ac:	9201      	str	r2, [sp, #4]
 80067ae:	4423      	add	r3, r4
 80067b0:	bf17      	itett	ne
 80067b2:	f503 5380 	addne.w	r3, r3, #4096	; 0x1000
 80067b6:	f103 0b10 	addeq.w	fp, r3, #16
 80067ba:	330f      	addne	r3, #15
 80067bc:	f423 637f 	bicne.w	r3, r3, #4080	; 0xff0
 80067c0:	bf18      	it	ne
 80067c2:	f023 0b0f 	bicne.w	fp, r3, #15
 80067c6:	4659      	mov	r1, fp
 80067c8:	f000 ff04 	bl	80075d4 <_sbrk_r>
 80067cc:	9a01      	ldr	r2, [sp, #4]
 80067ce:	f1b0 3fff 	cmp.w	r0, #4294967295
 80067d2:	4680      	mov	r8, r0
 80067d4:	f000 8120 	beq.w	8006a18 <_malloc_r+0x47c>
 80067d8:	4282      	cmp	r2, r0
 80067da:	f200 811a 	bhi.w	8006a12 <_malloc_r+0x476>
 80067de:	f8d9 3004 	ldr.w	r3, [r9, #4]
 80067e2:	4542      	cmp	r2, r8
 80067e4:	445b      	add	r3, fp
 80067e6:	f8c9 3004 	str.w	r3, [r9, #4]
 80067ea:	f000 8165 	beq.w	8006ab8 <_malloc_r+0x51c>
 80067ee:	f8d6 1408 	ldr.w	r1, [r6, #1032]	; 0x408
 80067f2:	f240 1070 	movw	r0, #368	; 0x170
 80067f6:	f2c2 0000 	movt	r0, #8192	; 0x2000
 80067fa:	3101      	adds	r1, #1
 80067fc:	bf17      	itett	ne
 80067fe:	ebc2 0208 	rsbne	r2, r2, r8
 8006802:	f8c0 8408 	streq.w	r8, [r0, #1032]	; 0x408
 8006806:	189b      	addne	r3, r3, r2
 8006808:	f8c9 3004 	strne.w	r3, [r9, #4]
 800680c:	f018 0307 	ands.w	r3, r8, #7
 8006810:	4638      	mov	r0, r7
 8006812:	bf1f      	itttt	ne
 8006814:	f1c3 0208 	rsbne	r2, r3, #8
 8006818:	f5c3 5380 	rsbne	r3, r3, #4096	; 0x1000
 800681c:	4490      	addne	r8, r2
 800681e:	f103 0208 	addne.w	r2, r3, #8
 8006822:	eb08 030b 	add.w	r3, r8, fp
 8006826:	bf08      	it	eq
 8006828:	f44f 5280 	moveq.w	r2, #4096	; 0x1000
 800682c:	f3c3 030b 	ubfx	r3, r3, #0, #12
 8006830:	ebc3 0b02 	rsb	fp, r3, r2
 8006834:	4659      	mov	r1, fp
 8006836:	f000 fecd 	bl	80075d4 <_sbrk_r>
 800683a:	f240 52a0 	movw	r2, #1440	; 0x5a0
 800683e:	f8c6 8008 	str.w	r8, [r6, #8]
 8006842:	f2c2 0200 	movt	r2, #8192	; 0x2000
 8006846:	1c43      	adds	r3, r0, #1
 8006848:	f8d9 3004 	ldr.w	r3, [r9, #4]
 800684c:	bf15      	itete	ne
 800684e:	ebc8 0100 	rsbne	r1, r8, r0
 8006852:	2101      	moveq	r1, #1
 8006854:	4459      	addne	r1, fp
 8006856:	f04f 0b00 	moveq.w	fp, #0
 800685a:	bf18      	it	ne
 800685c:	f041 0101 	orrne.w	r1, r1, #1
 8006860:	42b5      	cmp	r5, r6
 8006862:	445b      	add	r3, fp
 8006864:	f8c8 1004 	str.w	r1, [r8, #4]
 8006868:	f8c9 3004 	str.w	r3, [r9, #4]
 800686c:	d018      	beq.n	80068a0 <_malloc_r+0x304>
 800686e:	f1ba 0f0f 	cmp.w	sl, #15
 8006872:	f240 8100 	bls.w	8006a76 <_malloc_r+0x4da>
 8006876:	f1aa 000c 	sub.w	r0, sl, #12
 800687a:	6869      	ldr	r1, [r5, #4]
 800687c:	f020 0007 	bic.w	r0, r0, #7
 8006880:	f04f 0c05 	mov.w	ip, #5
 8006884:	eb05 0e00 	add.w	lr, r5, r0
 8006888:	280f      	cmp	r0, #15
 800688a:	f001 0101 	and.w	r1, r1, #1
 800688e:	ea40 0101 	orr.w	r1, r0, r1
 8006892:	6069      	str	r1, [r5, #4]
 8006894:	f8ce c004 	str.w	ip, [lr, #4]
 8006898:	f8ce c008 	str.w	ip, [lr, #8]
 800689c:	f200 8118 	bhi.w	8006ad0 <_malloc_r+0x534>
 80068a0:	f240 52a0 	movw	r2, #1440	; 0x5a0
 80068a4:	f8d9 102c 	ldr.w	r1, [r9, #44]	; 0x2c
 80068a8:	f2c2 0200 	movt	r2, #8192	; 0x2000
 80068ac:	68b5      	ldr	r5, [r6, #8]
 80068ae:	428b      	cmp	r3, r1
 80068b0:	f8d9 1030 	ldr.w	r1, [r9, #48]	; 0x30
 80068b4:	bf88      	it	hi
 80068b6:	62d3      	strhi	r3, [r2, #44]	; 0x2c
 80068b8:	f240 52a0 	movw	r2, #1440	; 0x5a0
 80068bc:	f2c2 0200 	movt	r2, #8192	; 0x2000
 80068c0:	428b      	cmp	r3, r1
 80068c2:	bf88      	it	hi
 80068c4:	6313      	strhi	r3, [r2, #48]	; 0x30
 80068c6:	686a      	ldr	r2, [r5, #4]
 80068c8:	f022 0203 	bic.w	r2, r2, #3
 80068cc:	4294      	cmp	r4, r2
 80068ce:	ebc4 0302 	rsb	r3, r4, r2
 80068d2:	d801      	bhi.n	80068d8 <_malloc_r+0x33c>
 80068d4:	2b0f      	cmp	r3, #15
 80068d6:	dc05      	bgt.n	80068e4 <_malloc_r+0x348>
 80068d8:	4638      	mov	r0, r7
 80068da:	f04f 0800 	mov.w	r8, #0
 80068de:	f000 f9b3 	bl	8006c48 <__malloc_unlock>
 80068e2:	e693      	b.n	800660c <_malloc_r+0x70>
 80068e4:	192a      	adds	r2, r5, r4
 80068e6:	f043 0301 	orr.w	r3, r3, #1
 80068ea:	4638      	mov	r0, r7
 80068ec:	f044 0401 	orr.w	r4, r4, #1
 80068f0:	606c      	str	r4, [r5, #4]
 80068f2:	f105 0808 	add.w	r8, r5, #8
 80068f6:	60b2      	str	r2, [r6, #8]
 80068f8:	6053      	str	r3, [r2, #4]
 80068fa:	f000 f9a5 	bl	8006c48 <__malloc_unlock>
 80068fe:	4640      	mov	r0, r8
 8006900:	b003      	add	sp, #12
 8006902:	e8bd 8ff0 	ldmia.w	sp!, {r4, r5, r6, r7, r8, r9, sl, fp, pc}
 8006906:	4419      	add	r1, r3
 8006908:	68da      	ldr	r2, [r3, #12]
 800690a:	689c      	ldr	r4, [r3, #8]
 800690c:	4638      	mov	r0, r7
 800690e:	684d      	ldr	r5, [r1, #4]
 8006910:	f103 0808 	add.w	r8, r3, #8
 8006914:	60e2      	str	r2, [r4, #12]
 8006916:	f045 0501 	orr.w	r5, r5, #1
 800691a:	6094      	str	r4, [r2, #8]
 800691c:	604d      	str	r5, [r1, #4]
 800691e:	f000 f993 	bl	8006c48 <__malloc_unlock>
 8006922:	4640      	mov	r0, r8
 8006924:	b003      	add	sp, #12
 8006926:	e8bd 8ff0 	ldmia.w	sp!, {r4, r5, r6, r7, r8, r9, sl, fp, pc}
 800692a:	f1bc 0f14 	cmp.w	ip, #20
 800692e:	bf9c      	itt	ls
 8006930:	f10c 0c5b 	addls.w	ip, ip, #91	; 0x5b
 8006934:	ea4f 054c 	movls.w	r5, ip, lsl #1
 8006938:	f67f ae74 	bls.w	8006624 <_malloc_r+0x88>
 800693c:	f1bc 0f54 	cmp.w	ip, #84	; 0x54
 8006940:	f200 808f 	bhi.w	8006a62 <_malloc_r+0x4c6>
 8006944:	ea4f 3c14 	mov.w	ip, r4, lsr #12
 8006948:	f10c 0c6e 	add.w	ip, ip, #110	; 0x6e
 800694c:	ea4f 054c 	mov.w	r5, ip, lsl #1
 8006950:	e668      	b.n	8006624 <_malloc_r+0x88>
 8006952:	0a42      	lsrs	r2, r0, #9
 8006954:	2a04      	cmp	r2, #4
 8006956:	d958      	bls.n	8006a0a <_malloc_r+0x46e>
 8006958:	2a14      	cmp	r2, #20
 800695a:	bf9c      	itt	ls
 800695c:	f102 015b 	addls.w	r1, r2, #91	; 0x5b
 8006960:	004d      	lslls	r5, r1, #1
 8006962:	d905      	bls.n	8006970 <_malloc_r+0x3d4>
 8006964:	2a54      	cmp	r2, #84	; 0x54
 8006966:	f200 80bc 	bhi.w	8006ae2 <_malloc_r+0x546>
 800696a:	0b01      	lsrs	r1, r0, #12
 800696c:	316e      	adds	r1, #110	; 0x6e
 800696e:	004d      	lsls	r5, r1, #1
 8006970:	eb06 0585 	add.w	r5, r6, r5, lsl #2
 8006974:	f240 1870 	movw	r8, #368	; 0x170
 8006978:	f2c2 0800 	movt	r8, #8192	; 0x2000
 800697c:	68aa      	ldr	r2, [r5, #8]
 800697e:	42aa      	cmp	r2, r5
 8006980:	d07f      	beq.n	8006a82 <_malloc_r+0x4e6>
 8006982:	6851      	ldr	r1, [r2, #4]
 8006984:	f021 0103 	bic.w	r1, r1, #3
 8006988:	4288      	cmp	r0, r1
 800698a:	d202      	bcs.n	8006992 <_malloc_r+0x3f6>
 800698c:	6892      	ldr	r2, [r2, #8]
 800698e:	4295      	cmp	r5, r2
 8006990:	d1f7      	bne.n	8006982 <_malloc_r+0x3e6>
 8006992:	68d0      	ldr	r0, [r2, #12]
 8006994:	6871      	ldr	r1, [r6, #4]
 8006996:	60d8      	str	r0, [r3, #12]
 8006998:	609a      	str	r2, [r3, #8]
 800699a:	6083      	str	r3, [r0, #8]
 800699c:	60d3      	str	r3, [r2, #12]
 800699e:	e68a      	b.n	80066b6 <_malloc_r+0x11a>
 80069a0:	191d      	adds	r5, r3, r4
 80069a2:	f041 0601 	orr.w	r6, r1, #1
 80069a6:	f044 0401 	orr.w	r4, r4, #1
 80069aa:	4638      	mov	r0, r7
 80069ac:	605c      	str	r4, [r3, #4]
 80069ae:	f103 0808 	add.w	r8, r3, #8
 80069b2:	6155      	str	r5, [r2, #20]
 80069b4:	6115      	str	r5, [r2, #16]
 80069b6:	f8c5 e00c 	str.w	lr, [r5, #12]
 80069ba:	f8c5 e008 	str.w	lr, [r5, #8]
 80069be:	606e      	str	r6, [r5, #4]
 80069c0:	5069      	str	r1, [r5, r1]
 80069c2:	f000 f941 	bl	8006c48 <__malloc_unlock>
 80069c6:	e621      	b.n	800660c <_malloc_r+0x70>
 80069c8:	f109 0901 	add.w	r9, r9, #1
 80069cc:	3008      	adds	r0, #8
 80069ce:	f019 0f03 	tst.w	r9, #3
 80069d2:	f47f ae89 	bne.w	80066e8 <_malloc_r+0x14c>
 80069d6:	e028      	b.n	8006a2a <_malloc_r+0x48e>
 80069d8:	f103 0208 	add.w	r2, r3, #8
 80069dc:	695b      	ldr	r3, [r3, #20]
 80069de:	429a      	cmp	r2, r3
 80069e0:	bf08      	it	eq
 80069e2:	f10c 0c02 	addeq.w	ip, ip, #2
 80069e6:	f43f ae37 	beq.w	8006658 <_malloc_r+0xbc>
 80069ea:	e5fe      	b.n	80065ea <_malloc_r+0x4e>
 80069ec:	4690      	mov	r8, r2
 80069ee:	4415      	add	r5, r2
 80069f0:	68d3      	ldr	r3, [r2, #12]
 80069f2:	4638      	mov	r0, r7
 80069f4:	f858 2f08 	ldr.w	r2, [r8, #8]!
 80069f8:	6869      	ldr	r1, [r5, #4]
 80069fa:	f041 0101 	orr.w	r1, r1, #1
 80069fe:	6069      	str	r1, [r5, #4]
 8006a00:	60d3      	str	r3, [r2, #12]
 8006a02:	609a      	str	r2, [r3, #8]
